(iQLearningAgent
QLearningAgent
p0
(dp1
S'previous_action'
p2
cnumpy.core.multiarray
scalar
p3
(cnumpy
dtype
p4
(S'S4'
p5
I0
I1
tp6
Rp7
(I3
S'|'
p8
NNNI4
I1
I0
tp9
bS'West'
p10
tp11
Rp12
sS'current_recommended_action'
p13
g12
sS'current_state_type'
p14
S'terminal'
p15
sS'current_state'
p16
S'%%%%%%%\n%     %\n%     %\n%    G%\n%     %\n%P    %\n%%%%%%%'
p17
sS'previous_state'
p18
g17
sS'EXPLORATION_STRATEGY'
p19
S'BOLTZMANN'
p20
sS'train'
p21
I00
sS'current_legal_actions'
p22
(lp23
sS'ON_POLICY'
p24
I00
sS'q_values'
p25
(dp26
S'%%%%%%%\n%     %\n%     %\n%     %\n%G  P %\n%.    %\n%%%%%%%'
p27
(dp28
S'West'
p29
F13.217311916806997
sS'East'
p30
F-0.4741056823026124
sS'North'
p31
F-0.588657932854389
sS'South'
p32
F-0.448721149377349
ssS'%%%%%%%\n%     %\n%  G  %\n%     %\n%   P %\n%.    %\n%%%%%%%'
p33
(dp34
g29
F0.7694022630105424
sg30
F-0.555970454659338
sg31
F-0.747206457302317
sg32
F38.73091904960293
ssS'%%%%%%%\n%     %\n%     %\n%     %\n%     %\n%GP   %\n%%%%%%%'
p35
(dp36
g29
F306.81791190476673
sg30
F-0.0975
sg31
F0.09204846562500003
ssS'%%%%%%%\n%     %\n%    G%\n%P    %\n%     %\n%.    %\n%%%%%%%'
p37
(dp38
g30
F-0.18301285303538967
sg31
F-0.05
sg32
F110.47855153480361
ssS'%%%%%%%\n%  G  %\n%    .%\n%     %\n%     %\n%.    %\n%%%%%%%'
p39
(dp40
sS'%%%%%%%\n%G    %\n%  P .%\n%     %\n%     %\n%.    %\n%%%%%%%'
p41
(dp42
g29
I0
sg30
I0
sg31
F-0.05
sg32
I0
ssS'%%%%%%%\n%    P%\n%    .%\n%     %\n%     %\n%.G   %\n%%%%%%%'
p43
(dp44
g29
F-0.05
sg32
I0
ssS'%%%%%%%\n%     %\n%     %\n%     %\n%     %\n%. GP %\n%%%%%%%'
p45
(dp46
g29
F-25.05
sg30
F-0.6226818209208993
sg31
F-0.1357028832071508
ssS'%%%%%%%\n%  G  %\n%    P%\n%     %\n%     %\n%.    %\n%%%%%%%'
p47
(dp48
g29
F-1.4131372525321477
sg31
F-1.8688744925561254
sg32
F-1.0674875011476572
ssS'%%%%%%%\n%     %\n%     %\n% P  G%\n%     %\n%.    %\n%%%%%%%'
p49
(dp50
g29
F2.547403639920147
sg30
F-0.10838896471875001
sg31
F-0.24126016321017515
sg32
F12.711544509518337
ssS'%%%%%%%\n%     %\n%  G  %\n%     %\n%     %\n%.    %\n%%%%%%%'
p51
(dp52
sS'%%%%%%%\n% G   %\n%   P.%\n%     %\n%     %\n%.    %\n%%%%%%%'
p53
(dp54
g29
F-0.0975
sg30
F0.45
sg31
F-0.05
sg32
I0
ssS'%%%%%%%\n%   G %\n% P   %\n%     %\n%     %\n%.    %\n%%%%%%%'
p55
(dp56
g29
F-0.102175719659923
sg30
F-0.2913352223995413
sg31
F-0.5152337096296961
sg32
F1.024927492355868
ssS'%%%%%%%\n%    P%\n%G    %\n%     %\n%     %\n%.    %\n%%%%%%%'
p57
(dp58
g29
F-1.240935966113521
sg32
F-1.1006717110377382
ssS'%%%%%%%\n%     %\n%     %\n%  G  %\n%     %\n%.    %\n%%%%%%%'
p59
(dp60
sS'%%%%%%%\n%     %\n%    .%\n% PG  %\n%     %\n%.    %\n%%%%%%%'
p61
(dp62
g29
F-0.0975
sg30
I0
sg31
I0
sg32
I0
ssS'%%%%%%%\n%P    %\n%     %\n% G   %\n%     %\n%.    %\n%%%%%%%'
p63
(dp64
g30
F-0.5889290428088843
sg32
F-0.14633003768352093
ssS'%%%%%%%\n%    G%\n%     %\n%     %\n%P    %\n%.    %\n%%%%%%%'
p65
(dp66
g30
I0
sg31
I0
sg32
F478.6948754512854
ssS'%%%%%%%\n%     %\n%     %\n%  P  %\n%     %\n%.  G %\n%%%%%%%'
p67
(dp68
g29
F0.42538382511769046
sg30
F-0.31053489926269384
sg31
F-0.4982154538002583
sg32
F6.443778054351331
ssS'%%%%%%%\n%     %\n%   G %\n% P   %\n%     %\n%.    %\n%%%%%%%'
p69
(dp70
g29
F26.426159509637905
sg30
F-0.1811565906116908
sg31
F-0.44309189689858647
sg32
F-0.18549375
ssS'%%%%%%%\n%     %\n%  P  %\n%     %\n% G   %\n%.    %\n%%%%%%%'
p71
(dp72
g29
F0.060833925523999924
sg30
F-0.720896122981832
sg31
F-0.953577413446002
sg32
F2.222158704751251
ssS'%%%%%%%\n%     %\n%     %\n%     %\n%     %\n%G    %\n%%%%%%%'
p73
(dp74
sS'%%%%%%%\n%  GP %\n%    .%\n%     %\n%     %\n%.    %\n%%%%%%%'
p75
(dp76
g29
I0
sg30
F-0.05
sg32
F-0.05
ssS'%%%%%%%\n% G   %\n%     %\n%     %\n%     %\n%.    %\n%%%%%%%'
p77
(dp78
sS'%%%%%%%\n%     %\n%    P%\n%     %\n%   G %\n%.    %\n%%%%%%%'
p79
(dp80
g29
F-1.0887124530067203
sg31
F-1.28336756401765
sg32
F-0.8299873031889791
ssS'%%%%%%%\n%     %\n%    .%\n%    P%\n%  G  %\n%.    %\n%%%%%%%'
p81
(dp82
g29
I0
sg31
F0.45
sg32
I0
ssS'%%%%%%%\n%P    %\n%  G  %\n%     %\n%     %\n%.    %\n%%%%%%%'
p83
(dp84
g30
F-0.5035977545299481
sg32
F0.02253920604295867
ssS'%%%%%%%\n%     %\n%     %\n%    P%\n%     %\n%.  G %\n%%%%%%%'
p85
(dp86
g29
F-0.5067642281850889
sg31
F-0.663304244754083
sg32
F-0.6529127132493698
ssS'%%%%%%%\n%  G  %\n%     %\n%     %\n%     %\n%P    %\n%%%%%%%'
p87
(dp88
sS'%%%%%%%\n%   G %\n%    .%\n%     %\n%     %\n%. P  %\n%%%%%%%'
p89
(dp90
g29
I0
sg30
I0
sg31
F-0.05
ssS'%%%%%%%\n%     %\n%     %\n%G    %\n%P    %\n%.    %\n%%%%%%%'
p91
(dp92
g30
I0
sg31
I0
sg32
F247.7088796107319
ssS'%%%%%%%\n%     %\n%     %\n%  PG %\n%     %\n%.    %\n%%%%%%%'
p93
(dp94
g29
F-0.322147310188858
sg30
F-25.05
sg31
F-0.49681513581536485
sg32
F42.455898698544964
ssS'%%%%%%%\n%     %\n%G    %\n%P    %\n%     %\n%.    %\n%%%%%%%'
p95
(dp96
g30
F-0.05
sg31
F-25.05
sg32
F61.254336883117865
ssS'%%%%%%%\n%  G  %\n%    .%\n%     %\n%P    %\n%.    %\n%%%%%%%'
p97
(dp98
g30
I0
sg31
F-0.05
sg32
I0
ssS'%%%%%%%\n%     %\n%G  P.%\n%     %\n%     %\n%.    %\n%%%%%%%'
p99
(dp100
g29
I0
sg30
F0.3735169837193668
sg31
I0
sg32
I0
ssS'%%%%%%%\n%  G  %\n%     %\n%     %\n%  P  %\n%.    %\n%%%%%%%'
p101
(dp102
g29
F-0.019443267031249975
sg30
F-0.2385978614436918
sg31
F-0.2313764661313473
sg32
F101.71694228212363
ssS'%%%%%%%\n%     %\n%     %\n%    G%\n%    P%\n%.    %\n%%%%%%%'
p103
(dp104
g29
F0.18072252959101945
sg31
F-25.05
sg32
F-0.44687518694436595
ssS'%%%%%%%\n%     %\n%     %\n%     %\n%     %\n%.G  P%\n%%%%%%%'
p105
(dp106
g29
F5.484839622841822
sg31
F-0.5846415803874093
ssS'%%%%%%%\n%     %\n% G  .%\n% P   %\n%     %\n%.    %\n%%%%%%%'
p107
(dp108
g29
F-0.05
sg30
I0
sg31
I0
sg32
I0
ssS'%%%%%%%\n%     %\n%     %\n%     %\n% G   %\n%.  P %\n%%%%%%%'
p109
(dp110
g29
F61.211661240935456
sg30
F-0.25011051598448014
sg31
F-0.19812528998079398
ssS'%%%%%%%\n%     %\n%     %\n%     %\n%  P  %\n%. G  %\n%%%%%%%'
p111
(dp112
g29
F105.42788243309798
sg30
F-0.10227250312500001
sg31
F-0.15481050432953425
sg32
F-25.05
ssS'%%%%%%%\n%     %\n%   G.%\n%     %\n%  P  %\n%.    %\n%%%%%%%'
p113
(dp114
g29
F-0.05
sg30
I0
sg31
F-0.05
sg32
I0
ssS'%%%%%%%\n%  P  %\n%  G .%\n%     %\n%     %\n%.    %\n%%%%%%%'
p115
(dp116
g29
F-0.05
sg30
I0
sg32
I0
ssS'%%%%%%%\n% G   %\n%    .%\n%     %\n%     %\n%.    %\n%%%%%%%'
p117
(dp118
sS'%%%%%%%\n%     %\n% P  G%\n%     %\n%     %\n%.    %\n%%%%%%%'
p119
(dp120
g29
F-0.2705034806137842
sg30
F-0.20276026056965468
sg31
F-0.4144093508008663
sg32
F0.7400842063564717
ssS'%%%%%%%\n%   P %\n%    .%\n%     %\n%     %\n%. G  %\n%%%%%%%'
p121
(dp122
g29
F-0.05
sg30
I0
sg32
I0
ssS'%%%%%%%\n%     %\n% G   %\n%     %\n%     %\n%.  P %\n%%%%%%%'
p123
(dp124
g29
F95.18382796293045
sg30
F-0.33523977278764516
sg31
F-0.34772542488531166
ssS'%%%%%%%\n%     %\n% G  P%\n%     %\n%     %\n%.    %\n%%%%%%%'
p125
(dp126
g29
F9.319803030028538
sg31
F-2.4855921725639973
sg32
F0.6054385823963118
ssS'%%%%%%%\n%     %\n% P   %\n%     %\n%G    %\n%.    %\n%%%%%%%'
p127
(dp128
g29
F-0.29483325703125
sg30
F-0.42969016705717217
sg31
F-0.24723997321479757
sg32
F4.407843771612804
ssS'%%%%%%%\n%  P  %\n%    G%\n%     %\n%     %\n%.    %\n%%%%%%%'
p129
(dp130
g29
F-0.5936387758074567
sg30
F-0.452281870393197
sg32
F-0.6368035160038423
ssS'%%%%%%%\n%     %\n%     %\n%G    %\n%     %\n%.    %\n%%%%%%%'
p131
(dp132
sS'%%%%%%%\n%     %\n%  G .%\n%  P  %\n%     %\n%.    %\n%%%%%%%'
p133
(dp134
g29
I0
sg30
I0
sg31
F-25.05
sg32
I0
ssS'%%%%%%%\n%     %\n%G    %\n%     %\n%     %\n%. P  %\n%%%%%%%'
p135
(dp136
g29
F207.19256168451844
sg30
F-0.0975
sg31
F0.05774267441759237
ssS'%%%%%%%\n%     %\n%     %\n%   P %\n%   G %\n%.    %\n%%%%%%%'
p137
(dp138
g29
F2.537862364115079
sg30
F-0.6442258640116345
sg31
F-0.5524286447372573
sg32
F-25.05
ssS'%%%%%%%\n%  G  %\n%  P  %\n%     %\n%     %\n%.    %\n%%%%%%%'
p139
(dp140
g29
F-0.17099505708113308
sg30
F-0.7206484185099569
sg31
F-25.05
sg32
F3.3617743528452873
ssS'%%%%%%%\n%     %\n%     %\n%  P  %\n%  G  %\n%.    %\n%%%%%%%'
p141
(dp142
g29
F38.339481319732954
sg30
F-0.7014808941289017
sg31
F-0.5911361702096285
sg32
F-25.05
ssS'%%%%%%%\n%     %\n%     %\n%G    %\n%     %\n%P    %\n%%%%%%%'
p143
(dp144
sS'%%%%%%%\n% G   %\n%     %\n%    P%\n%     %\n%.    %\n%%%%%%%'
p145
(dp146
g29
F12.526519212287162
sg31
F-1.9603493252365547
sg32
F-1.0919024253833125
ssS'%%%%%%%\n%G    %\n%  P  %\n%     %\n%     %\n%.    %\n%%%%%%%'
p147
(dp148
g29
F-0.4586138971155031
sg30
F-0.6777178975633783
sg31
F-0.4338391732209244
sg32
F-0.041175851748077544
ssS'%%%%%%%\n%     %\n% G   %\n%   P %\n%     %\n%.    %\n%%%%%%%'
p149
(dp150
g29
F78.81569387279411
sg30
F-1.1402234378051705
sg31
F-1.2212741142794015
sg32
F-0.28251041529292875
ssS'%%%%%%%\n%     %\n%   G.%\n%     %\n%     %\n%.    %\n%%%%%%%'
p151
(dp152
sS'%%%%%%%\n%     %\n%    P%\n%    G%\n%     %\n%.    %\n%%%%%%%'
p153
(dp154
g29
F-1.0717737025664478
sg31
F-1.0142091299429041
sg32
F-25.05
ssS'%%%%%%%\n%     %\n%G    %\n%     %\n%     %\n%.    %\n%%%%%%%'
p155
(dp156
sS'%%%%%%%\n%     %\n%     %\n%     %\n%  GP %\n%.    %\n%%%%%%%'
p157
(dp158
g29
F-25.05
sg30
F-0.508724087736648
sg31
F-0.5929783909840936
sg32
F24.003941341354945
ssS'%%%%%%%\n%     %\n%   GP%\n%     %\n%     %\n%.    %\n%%%%%%%'
p159
(dp160
g29
F-25.05
sg31
F-1.9123326886869787
sg32
F-1.5598880405088933
ssS'%%%%%%%\n%     %\n%     %\n%     %\n%     %\n%.   G%\n%%%%%%%'
p161
(dp162
sS'%%%%%%%\n%  P  %\n%     %\n%     %\n%G    %\n%.    %\n%%%%%%%'
p163
(dp164
g29
F-0.7824225733434811
sg30
F-0.9720175607983377
sg32
F-0.8410376047637529
ssS'%%%%%%%\n% P   %\n%    .%\n%  G  %\n%     %\n%.    %\n%%%%%%%'
p165
(dp166
g29
I0
sg30
F-0.05
sg32
I0
ssS'%%%%%%%\n%     %\n% PG  %\n%     %\n%     %\n%.    %\n%%%%%%%'
p167
(dp168
g29
F-0.29135645615004574
sg30
F-25.05
sg31
F-0.5429918351341498
sg32
F9.754167028372331
ssS'%%%%%%%\n%     %\n%     %\n%     %\n% P   %\n%.  G %\n%%%%%%%'
p169
(dp170
g29
F162.3391794207275
sg30
F-0.047797065921875
sg31
F-0.04590014421875
sg32
F-0.05
ssS'%%%%%%%\n%  GP %\n%     %\n%     %\n%     %\n%.    %\n%%%%%%%'
p171
(dp172
g29
F-25.05
sg30
F-2.131769890112227
sg32
F-1.2517923286240569
ssS'%%%%%%%\n%     %\n%    .%\n% P   %\n%     %\n%G    %\n%%%%%%%'
p173
(dp174
g29
I0
sg30
I0
sg31
F-0.05
sg32
I0
ssS'%%%%%%%\n%     %\n%     %\n% G   %\n%     %\n%.   P%\n%%%%%%%'
p175
(dp176
g29
F1.0501983634176895
sg31
F-0.5026247922999515
ssS'%%%%%%%\n%G    %\n%P    %\n%     %\n%     %\n%.    %\n%%%%%%%'
p177
(dp178
g30
F-0.10188749999999999
sg31
F-25.05
sg32
F4.796591656050085
ssS'%%%%%%%\n%     %\n% G   %\n%     %\n%     %\n%.P   %\n%%%%%%%'
p179
(dp180
g29
F504.45755718241213
sg30
I0
sg31
I0
ssS'%%%%%%%\n%     %\n%    .%\n%P    %\n%     %\n%.G   %\n%%%%%%%'
p181
(dp182
g30
F-0.05
sg31
I0
sg32
I0
ssS'%%%%%%%\n%     %\n%     %\n%   G %\n%   P %\n%.    %\n%%%%%%%'
p183
(dp184
g29
F72.7311156373402
sg30
F-0.6219997172630809
sg31
F-25.05
sg32
F1.896914470520136
ssS'%%%%%%%\n%     %\n%     %\n% PG  %\n%     %\n%.    %\n%%%%%%%'
p185
(dp186
g29
F-0.18752437500000002
sg30
F-25.05
sg31
F-0.2881679377978125
sg32
F129.03531612940503
ssS'%%%%%%%\n%     %\n%  G  %\n%P    %\n%     %\n%.    %\n%%%%%%%'
p187
(dp188
g30
F-0.19386652467187504
sg31
F-0.18988125
sg32
F81.64131475958416
ssS'%%%%%%%\n% P   %\n%    .%\n%G    %\n%     %\n%.    %\n%%%%%%%'
p189
(dp190
g29
I0
sg30
F-0.05
sg32
I0
ssS'%%%%%%%\n% P   %\n%    .%\n%     %\n%     %\n%. G  %\n%%%%%%%'
p191
(dp192
g29
I0
sg30
I0
sg32
F-0.05
ssS'%%%%%%%\n%     %\n%     %\n%P    %\n%    G%\n%.    %\n%%%%%%%'
p193
(dp194
g30
F-0.17773451484428077
sg31
F-0.0975
sg32
F92.0533512736944
ssS'%%%%%%%\n%    G%\n%     %\n%   P %\n%     %\n%.    %\n%%%%%%%'
p195
(dp196
g29
F-0.19891092612502353
sg30
F-0.6077122518917213
sg31
F-0.4998521403327077
sg32
F-0.29603031096663557
ssS'%%%%%%%\n%  PG %\n%     %\n%     %\n%     %\n%.    %\n%%%%%%%'
p197
(dp198
g29
F-0.7404983211553094
sg30
F-25.05
sg32
F-0.4796617959182188
ssS'%%%%%%%\n%     %\n% P   %\n% G   %\n%     %\n%.    %\n%%%%%%%'
p199
(dp200
g29
F0.12538148865652265
sg30
F-0.16140029918622373
sg31
F-0.6532052125403252
sg32
F-25.05
ssS'%%%%%%%\n%     %\n%     %\n%     %\n% GP  %\n%.    %\n%%%%%%%'
p201
(dp202
g29
F-25.05
sg30
F-0.29235561033118795
sg31
F-0.26830768626736934
sg32
F123.99598951872143
ssS'%%%%%%%\n% P   %\n%   G.%\n%     %\n%     %\n%.    %\n%%%%%%%'
p203
(dp204
g29
I0
sg30
I0
sg32
F-0.05
ssS'%%%%%%%\n%     %\n%     %\n%     %\n%  P  %\n%G    %\n%%%%%%%'
p205
(dp206
g29
F28.354889202323513
sg30
F-0.1576336211473226
sg31
F-0.09975
sg32
F2.199190391947492
ssS'%%%%%%%\n%     %\n%     %\n%    P%\n%     %\n%.G   %\n%%%%%%%'
p207
(dp208
g29
F-0.6636009938230233
sg31
F-1.1290173791597695
sg32
F-0.97051657267506
ssS'%%%%%%%\n%   G %\n% P  .%\n%     %\n%     %\n%.    %\n%%%%%%%'
p209
(dp210
g29
F-0.05
sg30
F-0.05
sg31
I0
sg32
I0
ssS'%%%%%%%\n%     %\n% G   %\n% P   %\n%     %\n%.    %\n%%%%%%%'
p211
(dp212
g29
F0.8119838125768372
sg30
F-0.15553015625000002
sg31
F-25.05
sg32
F167.52292119810002
ssS'%%%%%%%\n%     %\n%    .%\n%     %\n% G  P%\n%.    %\n%%%%%%%'
p213
(dp214
g29
I0
sg31
F-0.05
sg32
I0
ssS'%%%%%%%\n%     %\n%G    %\n%     %\n% P   %\n%.    %\n%%%%%%%'
p215
(dp216
g29
F-0.05
sg30
F-0.10188749999999999
sg31
F-0.006156083016016639
sg32
F329.62778442677575
ssS'%%%%%%%\n%     %\n%     %\n%    P%\n%    G%\n%.    %\n%%%%%%%'
p217
(dp218
g29
F-0.61057682794944
sg31
F-0.782051651130676
sg32
F-25.05
ssS'%%%%%%%\n%  P  %\n%     %\n%     %\n%     %\n%.G   %\n%%%%%%%'
p219
(dp220
g29
F-0.7043424357339145
sg30
F-1.0653955379701399
sg32
F-0.6132601890028069
ssS'%%%%%%%\n%   P %\n%     %\n%    G%\n%     %\n%.    %\n%%%%%%%'
p221
(dp222
g29
F-0.9008882112149339
sg30
F-0.9188524325726688
sg32
F-0.9153035515271356
ssS'%%%%%%%\n%     %\n%     %\n%     %\n%    P%\n%G    %\n%%%%%%%'
p223
(dp224
g29
F-0.43365746776667435
sg31
F-0.4803919893052062
sg32
F-0.15606204983851937
ssS'%%%%%%%\n% PG  %\n%     %\n%     %\n%     %\n%.    %\n%%%%%%%'
p225
(dp226
g29
F-0.5550101462809774
sg30
F-25.05
sg32
F-0.08222466740227419
ssS'%%%%%%%\n%     %\n%   P %\n%     %\n%     %\n%.G   %\n%%%%%%%'
p227
(dp228
g29
F-0.8248310963461688
sg30
F-1.0587354942233909
sg31
F-1.1894634314735864
sg32
F-0.6069400580674031
ssS'%%%%%%%\n% G   %\n%     %\n%     %\n% P   %\n%.    %\n%%%%%%%'
p229
(dp230
g29
F0.9904875000000003
sg30
F-0.142625240609375
sg31
F-0.05
sg32
F341.9278115197745
ssS'%%%%%%%\n%     %\n%     %\n%     %\n%P    %\n%. G  %\n%%%%%%%'
p231
(dp232
g30
F-0.05
sg31
F-0.05
sg32
F284.97552565625125
ssS'%%%%%%%\n%     %\n%  GP %\n%     %\n%     %\n%.    %\n%%%%%%%'
p233
(dp234
g29
F-25.05
sg30
F-1.7417332537973327
sg31
F-1.8578873263714404
sg32
F18.393908751941392
ssS'%%%%%%%\n%   P %\n%   G %\n%     %\n%     %\n%.    %\n%%%%%%%'
p235
(dp236
g29
F-1.354565902470994
sg30
F-1.4721558963275234
sg32
F-25.05
ssS'%%%%%%%\n% P   %\n% G   %\n%     %\n%     %\n%.    %\n%%%%%%%'
p237
(dp238
g29
F-0.7210900293641878
sg30
F-1.0562344557081835
sg32
F-25.05
ssS'%%%%%%%\n%     %\n%GP   %\n%     %\n%     %\n%.    %\n%%%%%%%'
p239
(dp240
g29
F-25.05
sg30
F-0.35747403314641746
sg31
F-0.4790268707598156
sg32
F1.9152375415158502
ssS'%%%%%%%\n%     %\n%     %\n%     %\n%   PG%\n%.    %\n%%%%%%%'
p241
(dp242
g29
F-0.09685748326803591
sg30
F-25.05
sg31
F-0.3346251928394808
sg32
F8.566796338722076
ssS'%%%%%%%\n%     %\n%     %\n%   PG%\n%     %\n%.    %\n%%%%%%%'
p243
(dp244
g29
F-0.0329748989559579
sg30
F-25.05
sg31
F-0.6490678956386733
sg32
F1.4659892486158328
ssS'%%%%%%%\n%     %\n%     %\n%     %\n%P    %\n%G    %\n%%%%%%%'
p245
(dp246
g30
F0.09438956250000005
sg31
F-0.1480233726242723
sg32
I0
ssS'%%%%%%%\n%     %\n%     %\n%G    %\n%     %\n%.P   %\n%%%%%%%'
p247
(dp248
g29
F485.55047231564134
sg30
F-0.05
sg31
F-0.05
ssS'%%%%%%%\n%     %\n%     %\n%     %\n%     %\n%P G  %\n%%%%%%%'
p249
(dp250
sS'%%%%%%%\n%     %\n%     %\n%    G%\n%     %\n%.    %\n%%%%%%%'
p251
(dp252
sS'%%%%%%%\n%     %\n%     %\n%     %\n%GP   %\n%.    %\n%%%%%%%'
p253
(dp254
g29
F-25.05
sg30
F0.02664778405836908
sg31
F0.5899209370250448
sg32
F189.3748819011901
ssS'%%%%%%%\n%     %\n%     %\n%     %\n% PG  %\n%.    %\n%%%%%%%'
p255
(dp256
g29
F-0.05
sg30
F-25.05
sg31
F-0.18945346875000002
sg32
F332.5450550470001
ssS'%%%%%%%\n%     %\n% P  .%\n%     %\n%G    %\n%.    %\n%%%%%%%'
p257
(dp258
g29
F-0.05
sg30
I0
sg31
F-0.05
sg32
I0
ssS'%%%%%%%\n% G   %\n%   P %\n%     %\n%     %\n%.    %\n%%%%%%%'
p259
(dp260
g29
F-0.3322411064231683
sg30
F-2.017031993615391
sg31
F-1.6508527341639463
sg32
F63.95273456518171
ssS'%%%%%%%\n%     %\n%     %\n%     %\n%     %\n%.P  G%\n%%%%%%%'
p261
(dp262
g29
F247.7088796107319
sg30
I0
sg31
I0
ssS'%%%%%%%\n%     %\n%    .%\n%     %\n%   P %\n%.G   %\n%%%%%%%'
p263
(dp264
g29
I0
sg30
F-0.05
sg31
I0
sg32
I0
ssS'%%%%%%%\n% P   %\n%     %\n%     %\n%     %\n%G    %\n%%%%%%%'
p265
(dp266
g29
F-0.25846078250921395
sg30
F-0.32944208898906135
sg32
F-0.37036045938432827
ssS'%%%%%%%\n%     %\n%     %\n%     %\n%   GP%\n%.    %\n%%%%%%%'
p267
(dp268
g29
F-25.05
sg31
F-1.0022816383027822
sg32
F0.09154792501008921
ssS'%%%%%%%\n%P    %\n%     %\n%     %\n%    G%\n%.    %\n%%%%%%%'
p269
(dp270
g30
F-0.4046509514024868
sg32
F1.2056263866393118
ssS'%%%%%%%\n%G    %\n%     %\n%   P %\n%     %\n%.    %\n%%%%%%%'
p271
(dp272
g29
F20.16886587297236
sg30
F-0.628864539586171
sg31
F-0.6419575051945395
sg32
F0.19600281473404757
ssS'%%%%%%%\n%     %\n%  G .%\n%     %\n%     %\n%.    %\n%%%%%%%'
p273
(dp274
sS'%%%%%%%\n%     %\n%     %\n%P    %\n%     %\n%.  G %\n%%%%%%%'
p275
(dp276
g30
F-0.05
sg31
F-0.1471086875
sg32
F161.54584830469244
ssS'%%%%%%%\n%     %\n%     %\n%   G %\n%     %\n%.   P%\n%%%%%%%'
p277
(dp278
g29
F6.816737432978403
sg31
F-0.605828533229127
ssS'%%%%%%%\n%     %\n%    .%\n% G   %\n%     %\n%.    %\n%%%%%%%'
p279
(dp280
sS'%%%%%%%\n%     %\n% P  .%\n%     %\n%    G%\n%.    %\n%%%%%%%'
p281
(dp282
g29
F-0.05
sg30
I0
sg31
I0
sg32
I0
ssS'%%%%%%%\n%     %\n%     %\n%     %\n%  G  %\n%.    %\n%%%%%%%'
p283
(dp284
sS'%%%%%%%\n%     %\n%    P%\n%G    %\n%     %\n%.    %\n%%%%%%%'
p285
(dp286
g29
F0.8428854718652512
sg31
F-2.4098511939855327
sg32
F1.1654472157564695
ssS'%%%%%%%\n%     %\n% G   %\n%     %\n%P    %\n%.    %\n%%%%%%%'
p287
(dp288
g30
F-0.05
sg31
F-0.142625
sg32
F284.97552565625125
ssS'%%%%%%%\n%     %\n%     %\n%   P %\n%     %\n%. G  %\n%%%%%%%'
p289
(dp290
g29
F0.481482281678501
sg30
F-0.8374649693523165
sg31
F-0.9754952356835446
sg32
F-0.32376747290885804
ssS'%%%%%%%\n%   P %\n%     %\n%  G  %\n%     %\n%.    %\n%%%%%%%'
p291
(dp292
g29
F-1.4388309339167944
sg30
F-1.667009705804481
sg32
F-1.351985266924234
ssS'%%%%%%%\n%     %\n%P    %\n%    G%\n%     %\n%.    %\n%%%%%%%'
p293
(dp294
g30
F-0.20420776432552484
sg31
F-0.15533778125000003
sg32
F7.4874027606725475
ssS'%%%%%%%\n%   P %\n%     %\n%     %\n%     %\n%G    %\n%%%%%%%'
p295
(dp296
g29
F-0.9725693018174913
sg30
F-1.1781838503073163
sg32
F-1.0216649940626386
ssS'%%%%%%%\n%   G %\n%     %\n%     %\n% P   %\n%.    %\n%%%%%%%'
p297
(dp298
g29
F228.86711329553862
sg30
F-0.13392524801494912
sg31
F-0.05
sg32
F-0.05
ssS'%%%%%%%\n%     %\n%     %\n% G   %\n%   P %\n%.    %\n%%%%%%%'
p299
(dp300
g29
F16.180939764813402
sg30
F-0.49369080768849316
sg31
F-0.40542612428556907
sg32
F1.949869941126543
ssS'%%%%%%%\n%     %\n%     %\n%     %\n%     %\n%.  PG%\n%%%%%%%'
p301
(dp302
g29
F21.598238845027673
sg30
F-25.05
sg31
F-0.05
ssS'%%%%%%%\n%     %\n%   P %\n%     %\n%    G%\n%.    %\n%%%%%%%'
p303
(dp304
g29
F-0.8019183726869951
sg30
F-0.7420846687199044
sg31
F-0.7545844012988387
sg32
F-0.6321210060426612
ssS'%%%%%%%\n%     %\n%  P .%\n%     %\n%   G %\n%.    %\n%%%%%%%'
p305
(dp306
g29
F-0.0975
sg30
I0
sg31
I0
sg32
I0
ssS'%%%%%%%\n%   G %\n%     %\n%    P%\n%     %\n%.    %\n%%%%%%%'
p307
(dp308
g29
F0.02738073805993614
sg31
F-0.9966192495041656
sg32
F-0.785421441719694
ssS'%%%%%%%\n%     %\n%     %\n%     %\n%    G%\n%.    %\n%%%%%%%'
p309
(dp310
sS'%%%%%%%\n%     %\n%     %\n%     %\n%     %\n%.  GP%\n%%%%%%%'
p311
(dp312
g29
F-25.05
sg31
F-0.7289187892944192
ssS'%%%%%%%\n%    P%\n%     %\n%     %\n%    G%\n%.    %\n%%%%%%%'
p313
(dp314
g29
F-0.991407967357174
sg32
F-0.7865956545613836
ssS'%%%%%%%\n%     %\n%     %\n%P    %\n%  G  %\n%.    %\n%%%%%%%'
p315
(dp316
g30
F0.7589727774649582
sg31
F0.029850115314916267
sg32
F45.01177037461519
ssS'%%%%%%%\n% P   %\n%     %\n%     %\n% G   %\n%.    %\n%%%%%%%'
p317
(dp318
g29
F-0.6354885179060723
sg30
F-0.8613172777964764
sg32
F-0.5307594503659165
ssS'%%%%%%%\n%   G %\n%     %\n%     %\n%   P %\n%.    %\n%%%%%%%'
p319
(dp320
g29
F1.3771627975120524
sg30
F-0.4791758523326843
sg31
F-0.5156541916023101
sg32
F18.460693934182085
ssS'%%%%%%%\n%     %\n%    G%\n%     %\n%     %\n%.    %\n%%%%%%%'
p321
(dp322
sS'%%%%%%%\n%     %\n%     %\n%     %\n%  G  %\n%. P  %\n%%%%%%%'
p323
(dp324
g29
F320.9660480891358
sg30
F-0.0975
sg31
F-25.05
ssS'%%%%%%%\n% P   %\n%     %\n%  G  %\n%     %\n%.    %\n%%%%%%%'
p325
(dp326
g29
F-0.6136497681261432
sg30
F-1.0126922974622703
sg32
F-0.5026582784363239
ssS'%%%%%%%\n%G    %\n%     %\n%     %\n%     %\n%.P   %\n%%%%%%%'
p327
(dp328
g29
F463.31988054719676
sg30
F-0.0975
sg31
F0.1597506654837696
ssS'%%%%%%%\n%P    %\n%     %\n%     %\n%     %\n%.G   %\n%%%%%%%'
p329
(dp330
g30
F-0.4265885640597692
sg32
F-0.16237512611271487
ssS'%%%%%%%\n%   P %\n%     %\n%G    %\n%     %\n%.    %\n%%%%%%%'
p331
(dp332
g29
F-1.0502080801298184
sg30
F-1.1434984794450256
sg32
F-0.9431827769174143
ssS'%%%%%%%\n%     %\n%     %\n%     %\n%PG   %\n%.    %\n%%%%%%%'
p333
(dp334
g30
I0
sg31
I0
sg32
F316.92701630952837
ssS'%%%%%%%\n%     %\n%P    %\n%     %\n%     %\n%. G  %\n%%%%%%%'
p335
(dp336
g30
F-0.15477241959241264
sg31
F-0.2915576018050781
sg32
F6.067596214731159
ssS'%%%%%%%\n%     %\n%     %\n%   P %\n%     %\n%.   G%\n%%%%%%%'
p337
(dp338
g29
F-0.40354560218549823
sg30
F-0.2968305172640865
sg31
F-0.49432021856515285
sg32
F0.08637484536869858
ssS'%%%%%%%\n%     %\n%     %\n%     %\n%   P %\n%.  G %\n%%%%%%%'
p339
(dp340
g29
F4.495697335134748
sg30
F-0.3859534405562641
sg31
F-0.12078982169383143
sg32
F-25.05
ssS'%%%%%%%\n%     %\n%   PG%\n%     %\n%     %\n%.    %\n%%%%%%%'
p341
(dp342
g29
F-0.8752031249646441
sg30
F-25.05
sg31
F-0.9241754143679455
sg32
F-0.6119276751397564
ssS'%%%%%%%\n%     %\n%     %\n%     %\n%P    %\n%.   G%\n%%%%%%%'
p343
(dp344
g30
F-0.05
sg31
F-0.05225
sg32
F428.6903796727924
ssS'%%%%%%%\n%     %\n% P  .%\n%     %\n%     %\n%.  G %\n%%%%%%%'
p345
(dp346
g29
I0
sg30
F-0.05
sg31
I0
sg32
F-0.05
ssS'%%%%%%%\n%G  P %\n%     %\n%     %\n%     %\n%.    %\n%%%%%%%'
p347
(dp348
g29
F-0.7882108876235333
sg30
F-1.007125570009985
sg32
F0.09081487501058294
ssS'%%%%%%%\n%     %\n%   P %\n%     %\n%     %\n%.  G %\n%%%%%%%'
p349
(dp350
g29
F-0.8278389812459386
sg30
F-0.7587803248152917
sg31
F-0.7135016117510213
sg32
F-0.8570124448070251
ssS'%%%%%%%\n%   G %\n%     %\n%  P  %\n%     %\n%.    %\n%%%%%%%'
p351
(dp352
g29
F-0.2919778245543391
sg30
F-0.39587658200609094
sg31
F-0.43364031659296776
sg32
F117.23034834754526
ssS'%%%%%%%\n%     %\n%  P  %\n%     %\n%     %\n%. G  %\n%%%%%%%'
p353
(dp354
g29
F-0.21508502358853393
sg30
F-0.8460382576886957
sg31
F-0.7854005364340858
sg32
F2.0204518330329657
ssS'%%%%%%%\n%     %\n%P    %\n%     %\n% G   %\n%.    %\n%%%%%%%'
p355
(dp356
g30
F-0.4326473870345287
sg31
F-0.2645959813531908
sg32
F0.35176596062267923
ssS'%%%%%%%\n%     %\n%     %\n%     %\n%     %\n%G  P %\n%%%%%%%'
p357
(dp358
g29
F16.202246005116606
sg30
F-0.17656822480889844
sg31
F-0.40967237109289867
ssS'%%%%%%%\n%     %\n%     %\n% P   %\n%   G %\n%.    %\n%%%%%%%'
p359
(dp360
g29
F2.003991823526041
sg30
F-0.10726747652233594
sg31
F-0.15530180248437497
sg32
F91.73566432700882
ssS'%%%%%%%\n%     %\n%   P %\n% G   %\n%     %\n%.    %\n%%%%%%%'
p361
(dp362
g29
F-0.3868258130605965
sg30
F-1.733231918300317
sg31
F-1.7378086287553658
sg32
F11.525482535522391
ssS'%%%%%%%\n%G    %\n%     %\n%     %\n%P    %\n%.    %\n%%%%%%%'
p363
(dp364
g30
I0
sg31
I0
sg32
F94.41631875
ssS'%%%%%%%\n%   P %\n% G   %\n%     %\n%     %\n%.    %\n%%%%%%%'
p365
(dp366
g29
F-1.3339320654246083
sg30
F-1.9940243345883357
sg32
F-0.9430215813571227
ssS'%%%%%%%\n%    P%\n%    G%\n%     %\n%     %\n%.    %\n%%%%%%%'
p367
(dp368
g29
F-1.3298409856942361
sg32
F-25.05
ssS'%%%%%%%\n%   PG%\n%     %\n%     %\n%     %\n%.    %\n%%%%%%%'
p369
(dp370
g29
F-0.5666949557765629
sg30
F-25.05
sg32
F-0.8535097230692885
ssS'%%%%%%%\n%     %\n%     %\n%     %\n%     %\n%. PG %\n%%%%%%%'
p371
(dp372
g29
F155.34348123073747
sg30
F-25.05
sg31
F-0.0975
ssS'%%%%%%%\n%     %\n%  G  %\n%     %\n%     %\n%.   P%\n%%%%%%%'
p373
(dp374
g29
F9.762655832576732
sg31
F-0.5253869222143213
ssS'%%%%%%%\n%   GP%\n%    .%\n%     %\n%     %\n%.    %\n%%%%%%%'
p375
(dp376
g29
I0
sg32
F0.45
ssS'%%%%%%%\n%     %\n% P   %\n%   G %\n%     %\n%.    %\n%%%%%%%'
p377
(dp378
g29
F0.024531200033247103
sg30
F-0.32100832414155167
sg31
F-0.5440250826583024
sg32
F1.618107636403554
ssS'%%%%%%%\n% G   %\n% P   %\n%     %\n%     %\n%.    %\n%%%%%%%'
p379
(dp380
g29
F-0.2992678177200469
sg30
F-0.4654652914284194
sg31
F-25.05
sg32
F0.11852569795836843
ssS'%%%%%%%\n%     %\n%     %\n%GP   %\n%     %\n%.    %\n%%%%%%%'
p381
(dp382
g29
I0
sg30
F-0.151281875
sg31
F-0.1018875
sg32
F118.86323007321721
ssS'%%%%%%%\n% GP  %\n%    .%\n%     %\n%     %\n%.    %\n%%%%%%%'
p383
(dp384
g29
F-25.05
sg30
I0
sg32
F-0.0975
ssS'%%%%%%%\n%     %\n%     %\n%   GP%\n%     %\n%.    %\n%%%%%%%'
p385
(dp386
g29
F-25.05
sg31
F-1.3864429186069205
sg32
F-1.0165974683461905
ssS'%%%%%%%\n%     %\n%    .%\n%  G  %\n%  P  %\n%.    %\n%%%%%%%'
p387
(dp388
g29
I0
sg30
I0
sg31
I0
sg32
F-0.05
ssS'%%%%%%%\n%  P  %\n%  G  %\n%     %\n%     %\n%.    %\n%%%%%%%'
p389
(dp390
g29
F-1.2381902074951294
sg30
F-1.5453991817116024
sg32
F-25.05
ssS'%%%%%%%\n%     %\n%     %\n%     %\n%    G%\n%.   P%\n%%%%%%%'
p391
(dp392
g29
F3.0119022934942348
sg31
F-25.05
ssS'%%%%%%%\n%     %\n%  P  %\n%G    %\n%     %\n%.    %\n%%%%%%%'
p393
(dp394
g29
F-0.4517707049377434
sg30
F-0.7669880826259051
sg31
F-0.6955509109660045
sg32
F6.597701577088694
ssS'%%%%%%%\n%     %\n%P    %\n%     %\n%   G %\n%.    %\n%%%%%%%'
p395
(dp396
g30
F-0.23746924671875003
sg31
F-0.36207064228124997
sg32
F20.74696544314123
ssS'%%%%%%%\n%     %\n%    .%\n%  P  %\n%     %\n%.  G %\n%%%%%%%'
p397
(dp398
g29
I0
sg30
I0
sg31
F-0.05
sg32
I0
ssS'%%%%%%%\n%     %\n% P  .%\n%     %\n%     %\n%.G   %\n%%%%%%%'
p399
(dp400
g29
I0
sg30
I0
sg31
F-0.05
sg32
I0
ssS'%%%%%%%\n%     %\n%     %\n%P  G %\n%     %\n%.    %\n%%%%%%%'
p401
(dp402
g30
F-0.11085131020064812
sg31
F-0.1471086875
sg32
F91.313906413036
ssS'%%%%%%%\n%  G  %\n%     %\n%   P %\n%     %\n%.    %\n%%%%%%%'
p403
(dp404
g29
F90.82135608907576
sg30
F-0.783603812096778
sg31
F-0.8275857672241571
sg32
F0.9813338600130095
ssS'%%%%%%%\n%     %\n%     %\n%     %\n%   G %\n%.    %\n%%%%%%%'
p405
(dp406
sS'%%%%%%%\n%    G%\n%     %\n% P   %\n%     %\n%.    %\n%%%%%%%'
p407
(dp408
g29
F12.03173862855069
sg30
F-0.07392575252311395
sg31
F-0.24329639904373412
sg32
F-0.10517423578124997
ssS'%%%%%%%\n%     %\n%P  G %\n%     %\n%     %\n%.    %\n%%%%%%%'
p409
(dp410
g30
F-0.15254100917302815
sg31
F-0.2651936511587891
sg32
F8.499558518255913
ssS'%%%%%%%\n%  G  %\n%     %\n%     %\n%    P%\n%.    %\n%%%%%%%'
p411
(dp412
g29
F0.5766919061333602
sg31
F-0.8247560934134924
sg32
F-0.6563010392469832
ssS'%%%%%%%\n%   G %\n%     %\n%     %\n%     %\n%. P  %\n%%%%%%%'
p413
(dp414
g29
F214.35095697617334
sg30
F0.28772190864151936
sg31
F-0.142625
ssS'%%%%%%%\n%  P  %\n%     %\n% G   %\n%     %\n%.    %\n%%%%%%%'
p415
(dp416
g29
F-0.950995238770312
sg30
F-0.818158891934976
sg32
F0.036644953555111465
ssS'%%%%%%%\n%     %\n%     %\n% P   %\n% G   %\n%.    %\n%%%%%%%'
p417
(dp418
g29
F8.627811838128917
sg30
F0.3081453859309384
sg31
F-0.1985934245163281
sg32
F-25.05
ssS'%%%%%%%\n%     %\n% G   %\n%     %\n%     %\n%.    %\n%%%%%%%'
p419
(dp420
sS'%%%%%%%\n%  P  %\n%G    %\n%     %\n%     %\n%.    %\n%%%%%%%'
p421
(dp422
g29
F-0.7588495977889504
sg30
F-0.9063387742067572
sg32
F-0.052709372319325654
ssS'%%%%%%%\n%G    %\n%     %\n%     %\n%     %\n%P    %\n%%%%%%%'
p423
(dp424
sS'%%%%%%%\n%     %\n%    G%\n%     %\n%   P %\n%.    %\n%%%%%%%'
p425
(dp426
g29
F0.12054075258777279
sg30
F-0.6332251181791799
sg31
F-0.4906012953450992
sg32
F4.647677801896307
ssS'%%%%%%%\n%     %\n%P    %\n%G    %\n%     %\n%.    %\n%%%%%%%'
p427
(dp428
g30
F-0.27710843906250004
sg31
F-0.4131640041898161
sg32
F-25.05
ssS'%%%%%%%\n%     %\n%     %\n%  G  %\n%     %\n%.  P %\n%%%%%%%'
p429
(dp430
g29
F47.30314752964652
sg30
F-0.15432780273990365
sg31
F-0.1472099375
ssS'%%%%%%%\n%P    %\n%    .%\n%     %\n%    G%\n%.    %\n%%%%%%%'
p431
(dp432
g30
F-0.05
sg32
I0
ssS'%%%%%%%\n%     %\n%     %\n%    G%\n%     %\n%.P   %\n%%%%%%%'
p433
(dp434
g29
F473.6535943446979
sg30
F0.017993122676171956
sg31
F0.43889095841107545
ssS'%%%%%%%\n%     %\n%    .%\n% G  P%\n%     %\n%.    %\n%%%%%%%'
p435
(dp436
g29
I0
sg31
F0.44775000000000004
sg32
I0
ssS'%%%%%%%\n%     %\n%     %\n%     %\n%  PG %\n%.    %\n%%%%%%%'
p437
(dp438
g29
F0.15083362959375007
sg30
F-25.05
sg31
F-0.24001844383293766
sg32
F82.40804797466802
ssS'%%%%%%%\n%     %\n%     %\n%     %\n% G   %\n%.P   %\n%%%%%%%'
p439
(dp440
g29
F477.0998688960899
sg30
F-0.05
sg31
F-25.05
ssS'%%%%%%%\n%    P%\n%G   .%\n%     %\n%     %\n%.    %\n%%%%%%%'
p441
(dp442
g29
F-0.45963991233736307
sg32
F23.046972474437567
ssS'%%%%%%%\n%    P%\n%     %\n%     %\n%G    %\n%.    %\n%%%%%%%'
p443
(dp444
g29
F-1.562444763754889
sg32
F-1.6472669147721934
ssS'%%%%%%%\n%     %\n%    .%\n%PG   %\n%     %\n%.    %\n%%%%%%%'
p445
(dp446
g30
F-25.05
sg31
I0
sg32
I0
ssS'%%%%%%%\n%   G %\n%    .%\n%     %\n% P   %\n%.    %\n%%%%%%%'
p447
(dp448
g29
F-0.05
sg30
I0
sg31
I0
sg32
I0
ssS'%%%%%%%\n%     %\n%    .%\n%G    %\n%     %\n%.    %\n%%%%%%%'
p449
(dp450
sS'%%%%%%%\n%     %\n%     %\n% G   %\n%     %\n%. P  %\n%%%%%%%'
p451
(dp452
g29
F242.05963370171372
sg30
F0.4235478892756698
sg31
F0.7606981888588407
ssS'%%%%%%%\n%     %\n%    .%\n% P   %\n%     %\n%.   G%\n%%%%%%%'
p453
(dp454
g29
I0
sg30
F-0.05
sg31
I0
sg32
F-0.05
ssS'%%%%%%%\n%     %\n%     %\n%    P%\n%G    %\n%.    %\n%%%%%%%'
p455
(dp456
g29
F-0.6659063630240025
sg31
F-1.5067860816292484
sg32
F-1.1138983775928522
ssS'%%%%%%%\n%    G%\n%     %\n%     %\n%  P  %\n%.    %\n%%%%%%%'
p457
(dp458
g29
F-0.05
sg30
F-0.15317080322829235
sg31
F-0.14303056167512615
sg32
F152.9442343171561
ssS'%%%%%%%\n%    P%\n%     %\n%     %\n%     %\n%.G   %\n%%%%%%%'
p459
(dp460
g29
F-1.2524030090897924
sg32
F-1.4228632901231648
ssS'%%%%%%%\n%     %\n% P   %\n%     %\n%    G%\n%.    %\n%%%%%%%'
p461
(dp462
g29
F0.22333387066566657
sg30
F-0.3722955885946595
sg31
F-0.45648695242578413
sg32
F-0.21707835159789518
ssS'%%%%%%%\n% P   %\n%     %\n%     %\n%     %\n%.   G%\n%%%%%%%'
p463
(dp464
g29
F-0.22479560418019964
sg30
F-0.2886919358525477
sg32
F-0.24455341612346254
ssS'%%%%%%%\n%     %\n%  P  %\n%     %\n%   G %\n%.    %\n%%%%%%%'
p465
(dp466
g29
F-0.44578055976822906
sg30
F-0.9696348234735713
sg31
F-0.8416647949952658
sg32
F-0.2020482952867797
ssS'%%%%%%%\n%    G%\n%P   .%\n%     %\n%     %\n%.    %\n%%%%%%%'
p467
(dp468
g30
I0
sg31
F-0.05225
sg32
I0
ssS'%%%%%%%\n%  P  %\n%    .%\n%   G %\n%     %\n%.    %\n%%%%%%%'
p469
(dp470
g29
F-0.05
sg30
I0
sg32
F-0.05
ssS'%%%%%%%\n%     %\n%     %\n%     %\n%P  G %\n%.    %\n%%%%%%%'
p471
(dp472
g30
F-0.05
sg31
F-0.0975
sg32
F399.7488691530447
ssS'%%%%%%%\n%   P %\n% G  .%\n%     %\n%     %\n%.    %\n%%%%%%%'
p473
(dp474
g29
F-0.05
sg30
I0
sg32
F-0.10409937500000001
ssS'%%%%%%%\n%P    %\n%     %\n%     %\n%G    %\n%.    %\n%%%%%%%'
p475
(dp476
g30
F-0.4371539049189219
sg32
F-0.4230533933392665
ssS'%%%%%%%\n%    G%\n%     %\n%     %\n%     %\n%.P   %\n%%%%%%%'
p477
(dp478
g29
F284.97552565625125
sg30
F-0.05
sg31
F-0.142625
ssS'%%%%%%%\n%   G %\n%     %\n%     %\n%     %\n%.    %\n%%%%%%%'
p479
(dp480
sS'%%%%%%%\n%     %\n%    G%\n%    P%\n%     %\n%.    %\n%%%%%%%'
p481
(dp482
g29
F-0.8633268333262355
sg31
F-25.05
sg32
F-1.005331454724201
ssS'%%%%%%%\n%     %\n%  G  %\n%    P%\n%     %\n%.    %\n%%%%%%%'
p483
(dp484
g29
F0.9572669181829562
sg31
F-1.8244492987508156
sg32
F-1.0197704488759345
ssS'%%%%%%%\n%     %\n%   G %\n%   P %\n%     %\n%.    %\n%%%%%%%'
p485
(dp486
g29
F13.221497373993001
sg30
F-1.248013050874786
sg31
F-25.05
sg32
F1.486195750402092
ssS'%%%%%%%\n%     %\n%    .%\n%  PG %\n%     %\n%.    %\n%%%%%%%'
p487
(dp488
g29
I0
sg30
I0
sg31
I0
sg32
F-0.05
ssS'%%%%%%%\n%     %\n%P   .%\n%    G%\n%     %\n%.    %\n%%%%%%%'
p489
(dp490
g30
F-0.05
sg31
F-0.05
sg32
I0
ssS'%%%%%%%\n%     %\n% P   %\n%     %\n%  G  %\n%.    %\n%%%%%%%'
p491
(dp492
g29
F0.5137258750434126
sg30
F-0.5253554293376108
sg31
F-0.6626315896328661
sg32
F14.456940077838867
ssS'%%%%%%%\n%  G  %\n%     %\n%     %\n%     %\n%.  P %\n%%%%%%%'
p493
(dp494
g29
F102.90190062789611
sg30
F-0.10188749999999999
sg31
F-0.05
ssS'%%%%%%%\n% G   %\n%     %\n%     %\n%     %\n%.   P%\n%%%%%%%'
p495
(dp496
g29
F0.9929665051145851
sg31
F-0.3834843522367729
ssS'%%%%%%%\n%     %\n%  P .%\n%     %\n% G   %\n%.    %\n%%%%%%%'
p497
(dp498
g29
F-0.05
sg30
I0
sg31
I0
sg32
I0
ssS'%%%%%%%\n%     %\n%    .%\n%    G%\n%  P  %\n%.    %\n%%%%%%%'
p499
(dp500
g29
F-0.05
sg30
I0
sg31
I0
sg32
F0.03333298991406253
ssS'%%%%%%%\n%     %\n%P    %\n%     %\n%     %\n%.   G%\n%%%%%%%'
p501
(dp502
g30
F-0.18988125
sg31
F-0.22548388714884285
sg32
F0.29973844641835945
ssS'%%%%%%%\n%     %\n%  G .%\n%     %\n%     %\n%. P  %\n%%%%%%%'
p503
(dp504
g29
I0
sg30
I0
sg31
F-0.05
ssS'%%%%%%%\n%G    %\n%     %\n%     %\n%     %\n%.    %\n%%%%%%%'
p505
(dp506
sS'%%%%%%%\n%     %\n%   G %\n%     %\n%    P%\n%.    %\n%%%%%%%'
p507
(dp508
g29
F1.2551502389170266
sg31
F-1.065889675899341
sg32
F-0.6015587214888631
ssS'%%%%%%%\n%G    %\n%    P%\n%     %\n%     %\n%.    %\n%%%%%%%'
p509
(dp510
g29
F42.96906888392597
sg31
F-2.5261721689985315
sg32
F0.686186606520429
ssS'%%%%%%%\n%     %\n%    P%\n%     %\n% G   %\n%.    %\n%%%%%%%'
p511
(dp512
g29
F-0.9430528264614148
sg31
F-1.7778581257417112
sg32
F-1.3564976752691578
ssS'%%%%%%%\n%  G  %\n%  P .%\n%     %\n%     %\n%.    %\n%%%%%%%'
p513
(dp514
g29
F-0.05
sg30
I0
sg31
F-25.05
sg32
I0
ssS'%%%%%%%\n% G   %\n%     %\n%     %\n%   P %\n%.    %\n%%%%%%%'
p515
(dp516
g29
F-0.1331570240636933
sg30
F-0.44730784487769926
sg31
F-0.2623749504629431
sg32
F10.999446066170634
ssS'%%%%%%%\n%  G  %\n%P    %\n%     %\n%     %\n%.    %\n%%%%%%%'
p517
(dp518
g30
F-0.4765324199906502
sg31
F-0.28644876788444434
sg32
F-0.15300284375
ssS'%%%%%%%\n% P   %\n%   G %\n%     %\n%     %\n%.    %\n%%%%%%%'
p519
(dp520
g29
F-0.8998569042554841
sg30
F-0.721552923000667
sg32
F-0.5248398510420756
ssS'%%%%%%%\n%     %\n%     %\n% GP  %\n%     %\n%.    %\n%%%%%%%'
p521
(dp522
g29
F-25.05
sg30
F-0.6508294375536934
sg31
F-0.5520231428095402
sg32
F82.80332716462975
ssS'%%%%%%%\n%     %\n%     %\n%     %\n%G    %\n%.   P%\n%%%%%%%'
p523
(dp524
g29
F2.9262254310991613
sg31
F-0.5450350448324562
ssS'%%%%%%%\n%     %\n%  P  %\n%  G  %\n%     %\n%.    %\n%%%%%%%'
p525
(dp526
g29
F-0.2151912733574141
sg30
F-0.9424008064826414
sg31
F-0.9589858355360541
sg32
F-25.05
ssS'%%%%%%%\n%     %\n%   G %\n%     %\n%     %\n%.    %\n%%%%%%%'
p527
(dp528
sS'%%%%%%%\n%   P %\n%    .%\n%G    %\n%     %\n%.    %\n%%%%%%%'
p529
(dp530
g29
F-0.05
sg30
F-0.05
sg32
F-0.0975
ssS'%%%%%%%\n%     %\n%     %\n%  P  %\n%    G%\n%.    %\n%%%%%%%'
p531
(dp532
g29
F0.3149548822701253
sg30
F-0.3346396021946993
sg31
F-0.38929429251016745
sg32
F0.5672580909763243
ssS'%%%%%%%\n%     %\n%  PG %\n%     %\n%     %\n%.    %\n%%%%%%%'
p533
(dp534
g29
F-0.2889148681701729
sg30
F-25.05
sg31
F-0.8442037328867154
sg32
F-0.556573998035063
ssS'%%%%%%%\n%     %\n% P  .%\n%     %\n%  G  %\n%.    %\n%%%%%%%'
p535
(dp536
g29
I0
sg30
I0
sg31
F-0.05
sg32
I0
ssS'%%%%%%%\n% G   %\n%     %\n%P    %\n%     %\n%.    %\n%%%%%%%'
p537
(dp538
g30
F1.522115347479901
sg31
F-0.1300878631439003
sg32
F-0.05
ssS'%%%%%%%\n%     %\n%  G .%\n%P    %\n%     %\n%.    %\n%%%%%%%'
p539
(dp540
g30
F-0.05
sg31
I0
sg32
I0
ssS'%%%%%%%\n%     %\n%   G %\n%     %\n%     %\n%.P   %\n%%%%%%%'
p541
(dp542
g29
F488.894961201623
sg30
I0
sg31
I0
ssS'%%%%%%%\n%     %\n%     %\n%G    %\n%  P  %\n%.    %\n%%%%%%%'
p543
(dp544
g29
F150.32551291405085
sg30
F-0.19415062500000002
sg31
F-0.10584721875
sg32
F0.03162239617187504
ssS'%%%%%%%\n%     %\n%   P %\n%     %\n%  G  %\n%.    %\n%%%%%%%'
p545
(dp546
g29
F-0.8772974218609774
sg30
F-1.2257714204040249
sg31
F-1.3765040005685114
sg32
F-0.21801528435986595
ssS'%%%%%%%\n%  G  %\n%     %\n%     %\n%     %\n%.P   %\n%%%%%%%'
p547
(dp548
g29
F485.55047231564134
sg30
F-0.0975
sg31
F-0.05067806249999999
ssS'%%%%%%%\n%    G%\n%    P%\n%     %\n%     %\n%.    %\n%%%%%%%'
p549
(dp550
g29
F-0.7907436377825583
sg31
F-25.05
sg32
F-1.1093757706596452
ssS'%%%%%%%\n%GP   %\n%     %\n%     %\n%     %\n%.    %\n%%%%%%%'
p551
(dp552
g29
F-25.05
sg30
F-0.61674281444947
sg32
F-0.38626646687201865
ssS'%%%%%%%\n%   P %\n%     %\n%     %\n% G   %\n%.    %\n%%%%%%%'
p553
(dp554
g29
F-1.393156273458118
sg30
F-1.689695434039147
sg32
F-0.9004380704816399
ssS'%%%%%%%\n%   G %\n%     %\n%P    %\n%     %\n%.    %\n%%%%%%%'
p555
(dp556
g30
F-0.05225
sg31
I0
sg32
F101.75851207167811
ssS'%%%%%%%\n%  G  %\n%     %\n%     %\n%     %\n%.    %\n%%%%%%%'
p557
(dp558
sS'%%%%%%%\n%     %\n%   P %\n%     %\n%G    %\n%.    %\n%%%%%%%'
p559
(dp560
g29
F-0.7829013095309182
sg30
F-1.4382425177119427
sg31
F-1.294234184827762
sg32
F0.5521262208267287
ssS'%%%%%%%\n%     %\n%  P  %\n%    G%\n%     %\n%.    %\n%%%%%%%'
p561
(dp562
g29
F-0.553208096046064
sg30
F-0.5861800666965664
sg31
F-0.49387859322991423
sg32
F-0.4509095081314206
ssS'%%%%%%%\n%    G%\n%    .%\n%     %\n%     %\n%.P   %\n%%%%%%%'
p563
(dp564
g29
I0
sg30
F-0.05
sg31
I0
ssS'%%%%%%%\n% GP  %\n%     %\n%     %\n%     %\n%.    %\n%%%%%%%'
p565
(dp566
g29
F-25.05
sg30
F-0.956216625730412
sg32
F-0.17754418321525578
ssS'%%%%%%%\n%     %\n%     %\n%     %\n% G  P%\n%.    %\n%%%%%%%'
p567
(dp568
g29
F-0.42110763554942343
sg31
F-1.2140981095939565
sg32
F-0.28080791406178646
ssS'%%%%%%%\n%     %\n%    .%\n%   P %\n% G   %\n%.    %\n%%%%%%%'
p569
(dp570
g29
I0
sg30
F-0.05
sg31
I0
sg32
I0
ssS'%%%%%%%\n%     %\n%P   .%\n%     %\n%     %\n%.   G%\n%%%%%%%'
p571
(dp572
g30
F-0.05
sg31
I0
sg32
I0
ssS'%%%%%%%\n%   G %\n%     %\n%     %\n%     %\n%.   P%\n%%%%%%%'
p573
(dp574
g29
F4.3658128285842555
sg31
F-0.48335524347961545
ssS'%%%%%%%\n%     %\n%G    %\n%     %\n%   P %\n%.    %\n%%%%%%%'
p575
(dp576
g29
F2.503358359565823
sg30
F-0.5746669274408363
sg31
F-0.6004916780420833
sg32
F15.506609663562493
ssS'%%%%%%%\n%     %\n%    .%\n% P   %\n%     %\n%. G  %\n%%%%%%%'
p577
(dp578
g29
F-0.05
sg30
I0
sg31
I0
sg32
I0
ssS'%%%%%%%\n%     %\n%    G%\n%     %\n%     %\n%.   P%\n%%%%%%%'
p579
(dp580
g29
F0.49650066442209606
sg31
F-0.5423648710230247
ssS'%%%%%%%\n% P   %\n%    .%\n%     %\n%     %\n%G    %\n%%%%%%%'
p581
(dp582
g29
I0
sg30
I0
sg32
F-0.05
ssS'%%%%%%%\n% PG  %\n%    .%\n%     %\n%     %\n%.    %\n%%%%%%%'
p583
(dp584
g29
I0
sg30
I0
sg32
F-0.05
ssS'%%%%%%%\n%     %\n%  G  %\n%  P  %\n%     %\n%.    %\n%%%%%%%'
p585
(dp586
g29
F0.26228491917939234
sg30
F-0.5993343751365585
sg31
F-25.05
sg32
F163.6343226213758
ssS'%%%%%%%\n%    G%\n%  P .%\n%     %\n%     %\n%.    %\n%%%%%%%'
p587
(dp588
g29
I0
sg30
I0
sg31
I0
sg32
F-0.050659560950352095
ssS'%%%%%%%\n%     %\n%     %\n%     %\n%G    %\n%.    %\n%%%%%%%'
p589
(dp590
sS'%%%%%%%\n%     %\n%     %\n%  P  %\n%     %\n%.G   %\n%%%%%%%'
p591
(dp592
g29
F0.1055218575445932
sg30
F-0.5180947707091684
sg31
F-0.5333901399226106
sg32
F29.47043685262788
ssS'%%%%%%%\n%     %\n% P  .%\n%   G %\n%     %\n%.    %\n%%%%%%%'
p593
(dp594
g29
F-0.05
sg30
I0
sg31
I0
sg32
I0
ssS'%%%%%%%\n%     %\n% GP  %\n%     %\n%     %\n%.    %\n%%%%%%%'
p595
(dp596
g29
F-25.05
sg30
F-0.9323159279354066
sg31
F-0.980998544506188
sg32
F15.639328324090219
ssS'%%%%%%%\n%     %\n%G  P %\n%     %\n%     %\n%.    %\n%%%%%%%'
p597
(dp598
g29
F-0.5671738363074188
sg30
F-1.187708240281634
sg31
F-0.99514216201083
sg32
F0.07178634681519613
ssS'%%%%%%%\n%     %\n%     %\n%  G  %\n%     %\n%.P   %\n%%%%%%%'
p599
(dp600
g29
F501.0139907161266
sg30
F-0.142625
sg31
F0.18706180216160206
ssS'%%%%%%%\n%     %\n%     %\n% G   %\n%     %\n%.    %\n%%%%%%%'
p601
(dp602
sS'%%%%%%%\n%     %\n%P   .%\n%G    %\n%     %\n%.    %\n%%%%%%%'
p603
(dp604
g30
I0
sg31
I0
sg32
F-25.05
ssS'%%%%%%%\n%     %\n%     %\n%     %\n% G   %\n%P    %\n%%%%%%%'
p605
(dp606
sS'%%%%%%%\n%     %\n%     %\n%     %\n%   P %\n%.G   %\n%%%%%%%'
p607
(dp608
g29
F11.297564390298586
sg30
F-0.7504215547469435
sg31
F-0.6858690431013434
sg32
F-0.061627972497586975
ssS'%%%%%%%\n%PG   %\n%     %\n%     %\n%     %\n%.    %\n%%%%%%%'
p609
(dp610
g30
F-25.05
sg32
F-0.1069842797845263
ssS'%%%%%%%\n%   P %\n%    .%\n%     %\n%     %\n%G    %\n%%%%%%%'
p611
(dp612
g29
I0
sg30
F-0.05
sg32
I0
ssS'%%%%%%%\n%  G  %\n%     %\n%     %\n%P    %\n%.    %\n%%%%%%%'
p613
(dp614
g30
I0
sg31
F-0.05
sg32
F335.6541322193494
ssS'%%%%%%%\n%     %\n%     %\n% P   %\n%     %\n%G    %\n%%%%%%%'
p615
(dp616
g29
F-0.14476250000000002
sg30
F-0.19191187499999998
sg31
F-0.2436795880930223
sg32
F5.1588374895010185
ssS'%%%%%%%\n%   G %\n%   P %\n%     %\n%     %\n%.    %\n%%%%%%%'
p617
(dp618
g29
F-0.9064465192955257
sg30
F-1.2838281283871527
sg31
F-25.05
sg32
F-0.040651051917870884
ssS'%%%%%%%\n%     %\n%     %\n%     %\n%   G %\n%.P   %\n%%%%%%%'
p619
(dp620
g29
F485.55047231564134
sg30
I0
sg31
I0
ssS'%%%%%%%\n%     %\n%     %\n%    G%\n%  P  %\n%.    %\n%%%%%%%'
p621
(dp622
g29
F47.280708680888345
sg30
F-0.2000236644571604
sg31
F-0.1509901148414844
sg32
F1.073580472987589
ssS'%%%%%%%\n%     %\n% P   %\n%     %\n%     %\n%.  G %\n%%%%%%%'
p623
(dp624
g29
F-0.1100649206577988
sg30
F-0.5912440059207047
sg31
F-0.15834416276279756
sg32
F2.529231177643444
ssS'%%%%%%%\n%     %\n%    G%\n%     %\n% P   %\n%.    %\n%%%%%%%'
p625
(dp626
g29
F311.10310587252053
sg30
F-0.0975
sg31
F-0.18977437500000002
sg32
F-0.140776246859375
ssS'%%%%%%%\n%     %\n%    P%\n%     %\n%     %\n%. G  %\n%%%%%%%'
p627
(dp628
g29
F-1.0869385769627897
sg31
F-1.1043595860394575
sg32
F-0.920411863161238
ssS'%%%%%%%\n%     %\n%     %\n%    G%\n%     %\n%.  P %\n%%%%%%%'
p629
(dp630
g29
F22.92307129727496
sg30
F-0.20232267622347477
sg31
F-0.23545461696634912
ssS'%%%%%%%\n%     %\n%     %\n%   P %\n%     %\n%G    %\n%%%%%%%'
p631
(dp632
g29
F1.9288720456011483
sg30
F-0.7896290157190314
sg31
F-0.817999441000457
sg32
F0.05835661962584213
ssS'%%%%%%%\n%     %\n%     %\n%     %\n% P  G%\n%.    %\n%%%%%%%'
p633
(dp634
g29
F173.3880325323093
sg30
F-0.05
sg31
F-0.048157181234375006
sg32
F2.0906125
ssS'%%%%%%%\n%    G%\n%     %\n%     %\n%     %\n%.    %\n%%%%%%%'
p635
(dp636
sS'%%%%%%%\n%     %\n%     %\n%     %\n%  P  %\n%.   G%\n%%%%%%%'
p637
(dp638
g29
F0.002132153125000008
sg30
F-0.032342522324045594
sg31
F-0.043771957505355744
sg32
F22.126288576935742
ssS'%%%%%%%\n%P    %\n%     %\n%     %\n%     %\n%.  G %\n%%%%%%%'
p639
(dp640
g30
F-0.36736952068780576
sg32
F0.9843602907778135
ssS'%%%%%%%\n%     %\n%     %\n%G    %\n%     %\n%.  P %\n%%%%%%%'
p641
(dp642
g29
F29.521866797062636
sg30
F-0.4276072315587553
sg31
F-0.3353196371104016
ssS'%%%%%%%\n%    P%\n%    .%\n%     %\n%G    %\n%.    %\n%%%%%%%'
p643
(dp644
g29
F-0.05
sg32
I0
ssS'%%%%%%%\n%     %\n%PG   %\n%     %\n%     %\n%.    %\n%%%%%%%'
p645
(dp646
g30
F-25.05
sg31
F-0.5548700439386991
sg32
F6.890784383163886
ssS'%%%%%%%\n% G   %\n%    .%\n%P    %\n%     %\n%.    %\n%%%%%%%'
p647
(dp648
g30
F-0.05
sg31
I0
sg32
I0
ssS'%%%%%%%\n%G  P %\n%    .%\n%     %\n%     %\n%.    %\n%%%%%%%'
p649
(dp650
g29
F-0.0975
sg30
I0
sg32
F-0.07725
ssS'%%%%%%%\n%   GP%\n%     %\n%     %\n%     %\n%.    %\n%%%%%%%'
p651
(dp652
g29
F-25.05
sg32
F-1.748290310953136
ssS'%%%%%%%\n%  P  %\n%     %\n%     %\n%    G%\n%.    %\n%%%%%%%'
p653
(dp654
g29
F-0.750551877811636
sg30
F-0.7549568791257835
sg32
F-0.6098913646184647
ssS'%%%%%%%\n%     %\n%   P %\n%   G %\n%     %\n%.    %\n%%%%%%%'
p655
(dp656
g29
F-0.8767993757824614
sg30
F-1.5096234515782774
sg31
F-1.1272834149743751
sg32
F-25.05
ssS'%%%%%%%\n%G    %\n%     %\n% P   %\n%     %\n%.    %\n%%%%%%%'
p657
(dp658
g29
F-0.05
sg30
F-0.05
sg31
F-0.09975
sg32
F140.32697260814652
ssS'%%%%%%%\n%     %\n%     %\n%     %\n%  G  %\n%.   P%\n%%%%%%%'
p659
(dp660
g29
F6.069548924889885
sg31
F-0.6853904559669968
ssS'%%%%%%%\n%     %\n%     %\n% G  P%\n%     %\n%.    %\n%%%%%%%'
p661
(dp662
g29
F12.15148034515945
sg31
F-1.7181826849961719
sg32
F-1.2004396525609908
ssS'%%%%%%%\n%P    %\n%     %\n%   G %\n%     %\n%.    %\n%%%%%%%'
p663
(dp664
g30
F-0.7078092746405968
sg32
F0.037328094128650034
ssS'%%%%%%%\n%   P %\n%     %\n%     %\n%     %\n%. G  %\n%%%%%%%'
p665
(dp666
g29
F-0.820631578229587
sg30
F-1.1736353780834143
sg32
F-1.0972094224284916
ssS'%%%%%%%\n%     %\n%    .%\n%     %\n% P  G%\n%.    %\n%%%%%%%'
p667
(dp668
g29
I0
sg30
F-0.05
sg31
F-0.05
sg32
I0
ssS'%%%%%%%\n%    G%\n%     %\n%     %\n%     %\n%.  P %\n%%%%%%%'
p669
(dp670
g29
F31.800482208259602
sg30
F-0.16168384046149065
sg31
F-0.4211526979767334
ssS'%%%%%%%\n%     %\n%P    %\n%     %\n%     %\n%G    %\n%%%%%%%'
p671
(dp672
g30
F-0.09975
sg31
F-0.25708711153068453
sg32
F-0.04021322276383425
ssS'%%%%%%%\n%     %\n%     %\n%     %\n%     %\n%. G  %\n%%%%%%%'
p673
(dp674
sS'%%%%%%%\n%     %\n%  P  %\n%     %\n%     %\n%.   G%\n%%%%%%%'
p675
(dp676
g29
F-0.3937742216091332
sg30
F-0.532805817506708
sg31
F-0.46886011505730696
sg32
F-0.31010965361425064
ssS'%%%%%%%\n%     %\n%     %\n%   P %\n% G   %\n%.    %\n%%%%%%%'
p677
(dp678
g29
F14.032578604040085
sg30
F-1.112197401798476
sg31
F-0.991963853673027
sg32
F-0.3417519685424494
ssS'%%%%%%%\n%     %\n%     %\n%     %\n% G   %\n%.    %\n%%%%%%%'
p679
(dp680
sS'%%%%%%%\n%     %\n%     %\n%     %\n%    P%\n%. G  %\n%%%%%%%'
p681
(dp682
g29
F0.5713752522269575
sg31
F-0.648423370945486
sg32
F-0.7316869117113477
ssS'%%%%%%%\n%  P  %\n%     %\n%     %\n%  G  %\n%.    %\n%%%%%%%'
p683
(dp684
g29
F-0.8508439455097991
sg30
F-1.0352604399802265
sg32
F-0.9228919701369874
ssS'%%%%%%%\n%    P%\n%     %\n%     %\n%     %\n%.  G %\n%%%%%%%'
p685
(dp686
g29
F-0.9017926819007328
sg32
F-0.9678103470099353
ssS'%%%%%%%\n%     %\n%     %\n%     %\n% P   %\n%.G   %\n%%%%%%%'
p687
(dp688
g29
F99.55618143493594
sg30
F-0.02487342878710024
sg31
F-0.1471112170308594
sg32
F-25.05
ssS'%%%%%%%\n%     %\n% GP .%\n%     %\n%     %\n%.    %\n%%%%%%%'
p689
(dp690
g29
F-25.05
sg30
F-0.05
sg31
I0
sg32
I0
ssS'%%%%%%%\n%     %\n%     %\n%P    %\n%G    %\n%.    %\n%%%%%%%'
p691
(dp692
g30
F4.358946269948436
sg31
F-0.21212878748437503
sg32
F-25.05
ssS'%%%%%%%\n%     %\n% G  .%\n%     %\n%     %\n%.    %\n%%%%%%%'
p693
(dp694
sS'%%%%%%%\n%     %\n%     %\n%     %\n%   G %\n%P    %\n%%%%%%%'
p695
(dp696
sS'%%%%%%%\n% P   %\n%     %\n%    G%\n%     %\n%.    %\n%%%%%%%'
p697
(dp698
g29
F-0.5754567908577968
sg30
F-0.5241498281063965
sg32
F-0.5675050138841056
ssS'%%%%%%%\n% P   %\n%    .%\n%     %\n%   G %\n%.    %\n%%%%%%%'
p699
(dp700
g29
I0
sg30
F-0.05
sg32
I0
ssS'%%%%%%%\n%     %\n%     %\n%    G%\n%     %\n%P    %\n%%%%%%%'
p701
(dp702
sS'%%%%%%%\n%P  G %\n%     %\n%     %\n%     %\n%.    %\n%%%%%%%'
p703
(dp704
g30
F-0.6494368094451078
sg32
F-0.4513046753888416
ssS'%%%%%%%\n%     %\n%     %\n%     %\n%G    %\n%. P  %\n%%%%%%%'
p705
(dp706
g29
F204.0198207117359
sg30
F-0.05225
sg31
F-0.14894289676051134
ssS'%%%%%%%\n%P    %\n%G    %\n%     %\n%     %\n%.    %\n%%%%%%%'
p707
(dp708
g30
F-0.7149241784581302
sg32
F-25.05
ssS'%%%%%%%\n%     %\n% G   %\n%     %\n%     %\n%P    %\n%%%%%%%'
p709
(dp710
sS'%%%%%%%\n%     %\n%     %\n%   G %\n%     %\n%.    %\n%%%%%%%'
p711
(dp712
sS'%%%%%%%\n%     %\n%    P%\n%  G  %\n%     %\n%.    %\n%%%%%%%'
p713
(dp714
g29
F-0.890915573715986
sg31
F-1.8665504838189635
sg32
F-1.5564481226512032
ssS'%%%%%%%\n%     %\n% P   %\n%     %\n%     %\n%.G   %\n%%%%%%%'
p715
(dp716
g29
F-0.24940556427144595
sg30
F-0.48573061987138805
sg31
F-0.33223693040229757
sg32
F1.8413504601706938
ssS'%%%%%%%\n%     %\n% G   %\n%     %\n%  P  %\n%.    %\n%%%%%%%'
p717
(dp718
g29
F205.67142807663083
sg30
F-0.149438815625
sg31
F-0.1471226346875
sg32
F-0.04202212237993144
ssS'%%%%%%%\n%    P%\n%     %\n%   G %\n%     %\n%.    %\n%%%%%%%'
p719
(dp720
g29
F-1.3483508868377576
sg32
F-1.3752742190441658
ssS'%%%%%%%\n%     %\n%     %\n%  P  %\n%G    %\n%.    %\n%%%%%%%'
p721
(dp722
g29
F2.3327232880345363
sg30
F-0.4412754620021148
sg31
F-0.5371525228624298
sg32
F32.39866693594967
ssS'%%%%%%%\n%     %\n%     %\n% P   %\n%     %\n%.   G%\n%%%%%%%'
p723
(dp724
g29
F4.657921757171611
sg30
F-0.05576620612128125
sg31
F-0.1022890795848082
sg32
F0.8964113494294925
ssS'%%%%%%%\n%P    %\n%     %\n%     %\n%  G  %\n%.    %\n%%%%%%%'
p725
(dp726
g30
F-0.5369418366120619
sg32
F-0.17376952494868086
ssS'%%%%%%%\n%     %\n%     %\n%  GP %\n%     %\n%.    %\n%%%%%%%'
p727
(dp728
g29
F-25.05
sg30
F-1.1641518248170475
sg31
F-1.1753747859530645
sg32
F21.60272327998864
ssS'%%%%%%%\n%     %\n%     %\n%    G%\n%P    %\n%.    %\n%%%%%%%'
p729
(dp730
g30
F-0.0975
sg31
F-0.05225
sg32
F393.9988096347839
ssS'%%%%%%%\n%     %\n%     %\n%  G  %\n%     %\n%P    %\n%%%%%%%'
p731
(dp732
sS'%%%%%%%\n%     %\n%     %\n% G   %\n% P   %\n%.    %\n%%%%%%%'
p733
(dp734
g29
F-0.05
sg30
F-0.103918125
sg31
F-25.05
sg32
F401.29552975774914
ssS'%%%%%%%\n%     %\n%     %\n%G    %\n%    P%\n%.    %\n%%%%%%%'
p735
(dp736
g29
F0.11596051934752968
sg31
F-0.5068225227960107
sg32
F-0.4012201340086383
ssS'%%%%%%%\n%  P  %\n%    .%\n%     %\n%  G  %\n%.    %\n%%%%%%%'
p737
(dp738
g29
F-0.05
sg30
I0
sg32
I0
ssS'%%%%%%%\n%     %\n%G    %\n%     %\n%     %\n%.   P%\n%%%%%%%'
p739
(dp740
g29
F5.096525285762393
sg31
F-0.3728282374331043
ssS'%%%%%%%\n%     %\n%    P%\n%     %\n%     %\n%G    %\n%%%%%%%'
p741
(dp742
g29
F-0.926758793310773
sg31
F-1.262689931387904
sg32
F-1.13469144050344
ssS'%%%%%%%\n%     %\n% PG .%\n%     %\n%     %\n%.    %\n%%%%%%%'
p743
(dp744
g29
I0
sg30
I0
sg31
I0
sg32
F-0.05
ssS'%%%%%%%\n%     %\n%P    %\n%  G  %\n%     %\n%.    %\n%%%%%%%'
p745
(dp746
g30
F-0.31591389027127137
sg31
F-0.526991122995605
sg32
F10.826081639162947
ssS'%%%%%%%\n%   G %\n%   P.%\n%     %\n%     %\n%.    %\n%%%%%%%'
p747
(dp748
g29
F-0.05
sg30
I0
sg31
I0
sg32
I0
ssS'%%%%%%%\n% G   %\n%     %\n%     %\n%     %\n%. P  %\n%%%%%%%'
p749
(dp750
g29
F305.74333718064923
sg30
I0
sg31
F-0.142625
ssS'%%%%%%%\n%     %\n%     %\n%   G %\n%     %\n%. P  %\n%%%%%%%'
p751
(dp752
g29
F245.18683713800897
sg30
F-0.18554088468750002
sg31
F-0.0975
ssS'%%%%%%%\n% P   %\n%     %\n%     %\n%     %\n%. G  %\n%%%%%%%'
p753
(dp754
g29
F-0.43280902633356577
sg30
F-0.4558330321148215
sg32
F-0.4155674303872664
ssS'%%%%%%%\n%     %\n%     %\n%     %\n%    P%\n%.   G%\n%%%%%%%'
p755
(dp756
g29
F0.1001961516288722
sg31
F-0.5403504745315394
sg32
F-25.05
ssS'%%%%%%%\n%  G  %\n%     %\n% P   %\n%     %\n%.    %\n%%%%%%%'
p757
(dp758
g29
F-0.15097221875
sg30
F0.15375090713054468
sg31
F-0.34533624631059834
sg32
F31.547360256893462
ssS'%%%%%%%\n%     %\n%   G %\n%     %\n%     %\n%.  P %\n%%%%%%%'
p759
(dp760
g29
F103.08059102712696
sg30
F-0.2871834415299557
sg31
F-0.39201694113476565
ssS'%%%%%%%\n%     %\n%     %\n%PG   %\n%     %\n%.    %\n%%%%%%%'
p761
(dp762
g30
F-25.05
sg31
F-0.142625
sg32
F55.92739184282425
ssS'%%%%%%%\n%    G%\n%     %\n%     %\n%     %\n%P    %\n%%%%%%%'
p763
(dp764
sS'%%%%%%%\n%    P%\n%     %\n%     %\n%  G  %\n%.    %\n%%%%%%%'
p765
(dp766
g29
F-1.424952397882682
sg32
F-1.5610781574790575
ssS'%%%%%%%\n%P    %\n%    G%\n%     %\n%     %\n%.    %\n%%%%%%%'
p767
(dp768
g30
F-0.48274431998928913
sg32
F-0.4165148129494742
ssS'%%%%%%%\n% G  P%\n%     %\n%     %\n%     %\n%.    %\n%%%%%%%'
p769
(dp770
g29
F-1.9946278714446317
sg32
F-1.5960394863293774
ssS'%%%%%%%\n%     %\n%    .%\n%   P %\n%     %\n%G    %\n%%%%%%%'
p771
(dp772
g29
I0
sg30
I0
sg31
I0
sg32
F-0.05
ssS'%%%%%%%\n%     %\n%   G %\n%     %\n%     %\n%P    %\n%%%%%%%'
p773
(dp774
sS'%%%%%%%\n%     %\n%    P%\n%     %\n%     %\n%.   G%\n%%%%%%%'
p775
(dp776
g29
F-0.6601640599332985
sg31
F-0.6516695717096357
sg32
F-0.5591296182487189
ssS'%%%%%%%\n%     %\n%     %\n%     %\n%   G %\n%.  P %\n%%%%%%%'
p777
(dp778
g29
F79.94249329410422
sg30
F-0.26088954611130893
sg31
F-25.05
ssS'%%%%%%%\n%     %\n%     %\n%     %\n%    G%\n%. P  %\n%%%%%%%'
p779
(dp780
g29
F159.7442454212927
sg30
F-0.0975
sg31
I0
ssS'%%%%%%%\n%    G%\n%P    %\n%     %\n%     %\n%.    %\n%%%%%%%'
p781
(dp782
g30
F-0.1027119133114922
sg31
F-0.3970608668056753
sg32
F2.2064908893114086
ssS'%%%%%%%\n%     %\n%   G %\n%     %\n%  P  %\n%.    %\n%%%%%%%'
p783
(dp784
g29
F229.24979128765898
sg30
F-0.15517035744825022
sg31
F-0.23456628124999998
sg32
F-0.05
ssS'%%%%%%%\n%    P%\n%     %\n% G   %\n%     %\n%.    %\n%%%%%%%'
p785
(dp786
g29
F-1.8929619160078057
sg32
F-2.1004859136081233
ssS'%%%%%%%\n%     %\n% G   %\n%     %\n%    P%\n%.    %\n%%%%%%%'
p787
(dp788
g29
F0.7492513907874346
sg31
F-0.9661162823129184
sg32
F-0.21885899869905212
ssS'%%%%%%%\n%    P%\n%  G  %\n%     %\n%     %\n%.    %\n%%%%%%%'
p789
(dp790
g29
F-1.8818876130132374
sg32
F-2.023009332304923
ssS'%%%%%%%\n%     %\n%     %\n%     %\n%     %\n%.G   %\n%%%%%%%'
p791
(dp792
sS'%%%%%%%\n%   P %\n%     %\n%     %\n%   G %\n%.    %\n%%%%%%%'
p793
(dp794
g29
F-1.0332829018301357
sg30
F-1.1749089813400813
sg32
F-1.0649614738484159
ssS'%%%%%%%\n%     %\n%     %\n%    P%\n%  G  %\n%.    %\n%%%%%%%'
p795
(dp796
g29
F-0.47167975273463564
sg31
F-0.780979328625367
sg32
F-1.0299045214319873
ssS'%%%%%%%\n%     %\n%  GP.%\n%     %\n%     %\n%.    %\n%%%%%%%'
p797
(dp798
g29
I0
sg30
I0
sg31
F-0.05
sg32
I0
ssS'%%%%%%%\n%     %\n%    G%\n%  P  %\n%     %\n%.    %\n%%%%%%%'
p799
(dp800
g29
F0.9808495646807422
sg30
F-0.4243317214851483
sg31
F-0.37693146020664364
sg32
F0.6275117993347262
ssS'%%%%%%%\n%G    %\n%     %\n%     %\n%    P%\n%.    %\n%%%%%%%'
p801
(dp802
g29
F0.45859818401975794
sg31
F-0.5563459587501363
sg32
F-0.18298831549679256
ssS'%%%%%%%\n%     %\n%     %\n%     %\n%     %\n%.GP  %\n%%%%%%%'
p803
(dp804
g29
F-25.05
sg30
F-0.09763674000092458
sg31
F16.87032367981627
ssS'%%%%%%%\n%G    %\n%     %\n%     %\n%  P  %\n%.    %\n%%%%%%%'
p805
(dp806
g29
F0.276112253933379
sg30
F-0.23456628124999998
sg31
F-0.1534146168265625
sg32
F39.87392438154593
ssS'%%%%%%%\n%     %\n%G    %\n%  P  %\n%     %\n%.    %\n%%%%%%%'
p807
(dp808
g29
F78.34635778490161
sg30
F-0.4691854812513924
sg31
F-0.29968065306232183
sg32
F0.9633197291440346
ssS'%%%%%%%\n%     %\n%  G  %\n%     %\n% P   %\n%.    %\n%%%%%%%'
p809
(dp810
g29
I0
sg30
I0
sg31
F-0.054387500000000005
sg32
F366.1464522605468
ssS'%%%%%%%\n%  P  %\n%G   .%\n%     %\n%     %\n%.    %\n%%%%%%%'
p811
(dp812
g29
I0
sg30
I0
sg32
F-0.05
ssS'%%%%%%%\n% P  G%\n%     %\n%     %\n%     %\n%.    %\n%%%%%%%'
p813
(dp814
g29
F-0.3755786631698791
sg30
F-0.3216295018436351
sg32
F-0.4145593041422482
ssS'%%%%%%%\n%G    %\n%     %\n%     %\n%     %\n%.  P %\n%%%%%%%'
p815
(dp816
g29
F62.951155094513446
sg30
F-0.1570184666670002
sg31
F-0.2525635557036817
ssS'%%%%%%%\n%  P  %\n%     %\n%     %\n%     %\n%.  G %\n%%%%%%%'
p817
(dp818
g29
F-0.7169758216427821
sg30
F-0.7663037398288591
sg32
F-0.6099916257833644
ssS'%%%%%%%\n%     %\n%     %\n%     %\n%     %\n%.PG  %\n%%%%%%%'
p819
(dp820
g29
F436.5205676546951
sg30
I0
sg31
I0
ssS'%%%%%%%\n%     %\n%     %\n%  G  %\n%    P%\n%.    %\n%%%%%%%'
p821
(dp822
g29
F0.11227661696366495
sg31
F-0.9260143879240094
sg32
F-0.0006185933971286015
ssS'%%%%%%%\n% G   %\n%     %\n%  P  %\n%     %\n%.    %\n%%%%%%%'
p823
(dp824
g29
F2.373012615969155
sg30
F-0.28257367606767364
sg31
F-0.22206210265546816
sg32
F20.77310851360297
ssS'%%%%%%%\n% P   %\n%     %\n%G    %\n%     %\n%.    %\n%%%%%%%'
p825
(dp826
g29
F-0.5500328741277133
sg30
F-0.4744977465896198
sg32
F-0.5495996040091383
ssS'%%%%%%%\n%     %\n%     %\n%     %\n%     %\n%P   G%\n%%%%%%%'
p827
(dp828
sS'%%%%%%%\n%   P %\n%     %\n%     %\n%     %\n%.   G%\n%%%%%%%'
p829
(dp830
g29
F-0.6642480633896798
sg30
F-0.6441807419762676
sg32
F-0.31523820291278454
ssS'%%%%%%%\n%     %\n%     %\n% P   %\n%     %\n%. G  %\n%%%%%%%'
p831
(dp832
g29
F35.050899282560465
sg30
F-0.23853677877247825
sg31
F-0.19258876095558722
sg32
F-0.005559937499999978
ssS'%%%%%%%\n%     %\n%  G  %\n%     %\n%     %\n%. P  %\n%%%%%%%'
p833
(dp834
g29
F285.2985249621472
sg30
F-0.05
sg31
I0
ssS'%%%%%%%\n%     %\n%   P.%\n%     %\n%G    %\n%.    %\n%%%%%%%'
p835
(dp836
g29
I0
sg30
I0
sg31
I0
sg32
F-0.0975
ssS'%%%%%%%\n%     %\n%     %\n%   G %\n% P   %\n%.    %\n%%%%%%%'
p837
(dp838
g29
F-0.0975
sg30
F-0.05
sg31
F-0.0975
sg32
F353.7827578960786
ssS'%%%%%%%\n%     %\n%     %\n%G  P %\n%     %\n%.    %\n%%%%%%%'
p839
(dp840
g29
F-0.154653323569786
sg30
F-0.6649312317719334
sg31
F-0.7642039186627215
sg32
F0.9262681190090991
ssS'%%%%%%%\n%     %\n%     %\n%     %\n%     %\n%.  G %\n%%%%%%%'
p841
(dp842
sS'%%%%%%%\n%     %\n%G    %\n%    P%\n%     %\n%.    %\n%%%%%%%'
p843
(dp844
g29
F8.123540807836726
sg31
F-1.0458831406926457
sg32
F-0.7389142864920697
ssS'%%%%%%%\n%     %\n%     %\n%P    %\n%     %\n%.G   %\n%%%%%%%'
p845
(dp846
g30
F-0.1813582616351319
sg31
F-0.08393840670936346
sg32
F57.72945537049048
ssS'%%%%%%%\n%    G%\n%  P  %\n%     %\n%     %\n%.    %\n%%%%%%%'
p847
(dp848
g29
F-0.4582294897813054
sg30
F-0.46686886739776157
sg31
F-0.4883174921900807
sg32
F-0.43437448018558983
ssS'%%%%%%%\n%     %\n%  P  %\n%     %\n%     %\n%G    %\n%%%%%%%'
p849
(dp850
g29
F-0.2278162744424617
sg30
F-0.8016258527336567
sg31
F-0.630200366920836
sg32
F0.6966080113019453
ssS'%%%%%%%\n%  P  %\n%    .%\n% G   %\n%     %\n%.    %\n%%%%%%%'
p851
(dp852
g29
I0
sg30
I0
sg32
F-0.05
ssS'%%%%%%%\n% P   %\n%     %\n%     %\n%   G %\n%.    %\n%%%%%%%'
p853
(dp854
g29
F-0.6320412105310644
sg30
F-0.7170101703044536
sg32
F-0.507038160114245
ssS'%%%%%%%\n%  P  %\n%     %\n%   G %\n%     %\n%.    %\n%%%%%%%'
p855
(dp856
g29
F-0.9516831630051291
sg30
F-0.903934307135523
sg32
F-1.010504487042545
ssS'%%%%%%%\n%     %\n%   G %\n%     %\n%P    %\n%.    %\n%%%%%%%'
p857
(dp858
g30
F0.5669329560441622
sg31
F-0.1020849375
sg32
F284.97552565625125
ssS'%%%%%%%\n%     %\n%     %\n%  G  %\n%  P  %\n%.    %\n%%%%%%%'
p859
(dp860
g29
F254.31548760700437
sg30
F-0.09994743750000001
sg31
F-25.05
sg32
F0.10728793708632813
ssS'%%%%%%%\n%     %\n%    .%\n%P    %\n%  G  %\n%.    %\n%%%%%%%'
p861
(dp862
g30
F-0.05
sg31
I0
sg32
I0
ssS'%%%%%%%\n%    G%\n%     %\n%     %\n%    P%\n%.    %\n%%%%%%%'
p863
(dp864
g29
F-0.2823378952162862
sg31
F-0.4941999462181571
sg32
F-0.35366591747717013
ssS'%%%%%%%\n%     %\n%     %\n%  G  %\n%P    %\n%.    %\n%%%%%%%'
p865
(dp866
g30
I0
sg31
F-0.10605562500000001
sg32
F233.9567153797178
ssS'%%%%%%%\n%     %\n%    G%\n%     %\n%     %\n%. P  %\n%%%%%%%'
p867
(dp868
g29
F325.3319661281696
sg30
F-0.14936649263294888
sg31
F-0.1693583591346588
ssS'%%%%%%%\n%     %\n%  PG.%\n%     %\n%     %\n%.    %\n%%%%%%%'
p869
(dp870
g29
I0
sg30
F-25.05
sg31
I0
sg32
F-0.05
sssS'INITIALIZE_VALUE'
p871
I0
sS'ALPHA'
p872
F0.05
sS'GAMMA'
p873
F0.9
sS'T'
p874
F1.5
sb.