(iQLearningAgent
QLearningAgent
p0
(dp1
S'previous_action'
p2
S'East'
p3
sS'current_recommended_action'
p4
g3
sS'current_state_type'
p5
S'terminal'
p6
sS'current_state'
p7
S'%%%%%\n%  G%\n%   %\n%%%%%'
p8
sS'previous_state'
p9
g8
sS'EXPLORATION_STRATEGY'
p10
S'BOLTZMANN'
p11
sS'train'
p12
I01
sS'current_legal_actions'
p13
(lp14
sS'ON_POLICY'
p15
I00
sS'q_values'
p16
(dp17
S'%%%%%\n% ..%\n%PG %\n%%%%%'
p18
(dp19
g3
F-25.05
sS'North'
p20
F-0.05
ssS'%%%%%\n%  G%\n%   %\n%%%%%'
p21
(dp22
sS'%%%%%\n%  .%\n% G %\n%%%%%'
p23
(dp24
sS'%%%%%\n%  P%\n% G %\n%%%%%'
p25
(dp26
sS'%%%%%\n%P..%\n%G  %\n%%%%%'
p27
(dp28
g3
I0
sS'South'
p29
F-25.05
ssS'%%%%%\n%  .%\n%PG %\n%%%%%'
p30
(dp31
g3
F-25.05
sg20
I0
ssS'%%%%%\n% P.%\n% G %\n%%%%%'
p32
(dp33
S'West'
p34
I0
sg3
F72.596125
sg29
I0
ssS'%%%%%\n%P..%\n%  G%\n%%%%%'
p35
(dp36
g3
F7.022001402773438
sg29
F-0.0975
ssS'%%%%%\n% ..%\n% G %\n%%%%%'
p37
(dp38
sS'%%%%%\n% PG%\n%   %\n%%%%%'
p39
(dp40
g34
I0
sg3
F49.627500000000005
sg29
F-0.142625
ssS'%%%%%\n%  .%\n% GP%\n%%%%%'
p41
(dp42
g34
I0
sg20
F25.450000000000003
ssS'%%%%%\n% ..%\n%G  %\n%%%%%'
p43
(dp44
sS'%%%%%\n% G.%\n% P %\n%%%%%'
p45
(dp46
g34
F-0.05
sg3
F-0.05
sg20
F-25.05
ssS'%%%%%\n% G.%\n%   %\n%%%%%'
p47
(dp48
ssS'INITIALIZE_VALUE'
p49
I0
sS'ALPHA'
p50
F0.05
sS'GAMMA'
p51
F0.9
sS'T'
p52
F1.5
sb.