(iQLearningAgent
QLearningAgent
p0
(dp1
S'previous_action'
p2
S'East'
p3
sS'current_recommended_action'
p4
g3
sS'current_state_type'
p5
S'terminal'
p6
sS'current_state'
p7
S'%%%%%\n%   %\n%. G%\n%%%%%'
p8
sS'previous_state'
p9
g8
sS'EXPLORATION_STRATEGY'
p10
S'BOLTZMANN'
p11
sS'train'
p12
I01
sS'current_legal_actions'
p13
(lp14
sS'ON_POLICY'
p15
I00
sS'q_values'
p16
(dp17
S'%%%%%\n% P %\n%G  %\n%%%%%'
p18
(dp19
sS'%%%%%\n%P  %\n%G. %\n%%%%%'
p20
(dp21
g3
F-0.05
sS'South'
p22
F-25.05
ssS'%%%%%\n% . %\n% G %\n%%%%%'
p23
(dp24
sS'%%%%%\n%   %\n%.PG%\n%%%%%'
p25
(dp26
S'West'
p27
I0
sg3
F-25.05
sS'North'
p28
I0
ssS'%%%%%\n%G  %\n%P. %\n%%%%%'
p29
(dp30
g3
I0
sg28
F-25.05
ssS'%%%%%\n%   %\n%.GP%\n%%%%%'
p31
(dp32
g27
F-25.05
sg28
F-0.05
ssS'%%%%%\n% G %\n%.P %\n%%%%%'
p33
(dp34
g27
I0
sg3
F-0.05
sg28
I0
ssS'%%%%%\n%G  %\n% . %\n%%%%%'
p35
(dp36
sS'%%%%%\n%   %\n%.G %\n%%%%%'
p37
(dp38
sS'%%%%%\n%  G%\n%..P%\n%%%%%'
p39
(dp40
g27
F0.45
sg28
I0
ssS'%%%%%\n% G %\n%.. %\n%%%%%'
p41
(dp42
sS'%%%%%\n%   %\n%G. %\n%%%%%'
p43
(dp44
sS'%%%%%\n% G %\n%   %\n%%%%%'
p45
(dp46
sS'%%%%%\n% . %\n% GP%\n%%%%%'
p47
(dp48
g27
F-25.05
sg28
F-0.05
ssS'%%%%%\n%P. %\n%..G%\n%%%%%'
p49
(dp50
g3
F2.3993279859375
sg22
F1.7829956250000003
ssS'%%%%%\n%PG %\n%.. %\n%%%%%'
p51
(dp52
g3
I0
sg22
F0.8775000000000001
ssS'%%%%%\n% GP%\n%   %\n%%%%%'
p53
(dp54
g27
I0
sg22
F-0.05
ssS'%%%%%\n% P %\n%.G %\n%%%%%'
p55
(dp56
g27
F-0.07826250000000001
sg3
F-0.05
sg22
F-24.55
ssS'%%%%%\n%G. %\n%  P%\n%%%%%'
p57
(dp58
g27
F-0.05
sg28
F-0.0975
ssS'%%%%%\n% .G%\n%P. %\n%%%%%'
p59
(dp60
g3
F2.8146937500000004
sg28
I0
ssg8
(dp61
sS'%%%%%\n%   %\n%PG %\n%%%%%'
p62
(dp63
g3
I0
sg28
F-0.05
ssS'%%%%%\n%GP %\n%.. %\n%%%%%'
p64
(dp65
g27
I0
sg3
F-0.05225
sg22
I0
ssS'%%%%%\n% GP%\n%.. %\n%%%%%'
p66
(dp67
g27
F-25.05
sg22
F-0.0975
ssS'%%%%%\n% PG%\n%.. %\n%%%%%'
p68
(dp69
g27
F-0.05
sg3
I0
sg22
F0.45
ssS'%%%%%\n% .P%\n%G  %\n%%%%%'
p70
(dp71
g27
I0
sg22
F-0.0975
ssS'%%%%%\n% G %\n% P %\n%%%%%'
p72
(dp73
g27
I0
sg3
F-0.0975
sg28
F49.627500000000005
ssS'%%%%%\n%G  %\n%..P%\n%%%%%'
p74
(dp75
g27
I0
sg28
F-0.0975
ssS'%%%%%\n%  P%\n%G. %\n%%%%%'
p76
(dp77
g27
I0
sg22
F-0.0975
ssS'%%%%%\n% . %\n%GP %\n%%%%%'
p78
(dp79
g27
I0
sg3
I0
sg28
F25.450000000000003
sssS'INITIALIZE_VALUE'
p80
I0
sS'ALPHA'
p81
F0.05
sS'GAMMA'
p82
F0.9
sS'T'
p83
F1.5
sb.