(iQLearningAgent
QLearningAgent
p0
(dp1
S'previous_action'
p2
S'East'
p3
sS'current_recommended_action'
p4
g3
sS'current_state_type'
p5
S'terminal'
p6
sS'current_state'
p7
S'%%%%%\n%  P%\n% G %\n%%%%%'
p8
sS'previous_state'
p9
g8
sS'EXPLORATION_STRATEGY'
p10
S'BOLTZMANN'
p11
sS'train'
p12
I01
sS'current_legal_actions'
p13
(lp14
sS'ON_POLICY'
p15
I00
sS'q_values'
p16
(dp17
S'%%%%%\n% ..%\n% GP%\n%%%%%'
p18
(dp19
S'West'
p20
I0
sS'North'
p21
F0.45
ssS'%%%%%\n% G.%\n% P %\n%%%%%'
p22
(dp23
g20
I0
sg3
F-0.05
sg21
I0
ssS'%%%%%\n%  G%\n%   %\n%%%%%'
p24
(dp25
sS'%%%%%\n% .G%\n%P  %\n%%%%%'
p26
(dp27
g3
F-0.05
sg21
I0
ssS'%%%%%\n%  P%\n% G %\n%%%%%'
p28
(dp29
sS'%%%%%\n%  .%\n% GP%\n%%%%%'
p30
(dp31
g20
I0
sg21
F25.450000000000003
ssS'%%%%%\n% G %\n%   %\n%%%%%'
p32
(dp33
sS'%%%%%\n%  .%\n% G %\n%%%%%'
p34
(dp35
sS'%%%%%\n% P.%\n% G %\n%%%%%'
p36
(dp37
g20
F-0.142625
sg3
F49.627500000000005
sS'South'
p38
F-25.05
ssS'%%%%%\n%P..%\n%  G%\n%%%%%'
p39
(dp40
g3
F7.4807535561503915
sg38
F-0.05
ssS'%%%%%\n% GP%\n%   %\n%%%%%'
p41
(dp42
g20
F25.450000000000003
sg38
I0
ssS'%%%%%\n%P .%\n%G  %\n%%%%%'
p43
(dp44
g3
I0
sg38
F-25.05
ssS'%%%%%\n% PG%\n%   %\n%%%%%'
p45
(dp46
g20
I0
sg3
F72.596125
sg38
I0
ssS'%%%%%\n%  .%\n%G  %\n%%%%%'
p47
(dp48
sS'%%%%%\n%G. %\n%  P%\n%%%%%'
p49
(dp50
g20
I0
sg21
F-0.05
ssS'%%%%%\n% G.%\n%   %\n%%%%%'
p51
(dp52
sS'%%%%%\n%G .%\n%P  %\n%%%%%'
p53
(dp54
g3
F-0.05
sg21
I0
ssS'%%%%%\n%PG.%\n%   %\n%%%%%'
p55
(dp56
g3
F-25.05
sg38
F-0.05
ssS'%%%%%\n%  .%\n%GP %\n%%%%%'
p57
(dp58
g20
I0
sg3
F-0.05
sg21
I0
ssS'%%%%%\n% .P%\n%G  %\n%%%%%'
p59
(dp60
g20
I0
sg38
F-0.05
sssS'INITIALIZE_VALUE'
p61
I0
sS'ALPHA'
p62
F0.05
sS'GAMMA'
p63
F0.9
sS'T'
p64
F1.5
sb.