(iQLearningAgent
QLearningAgent
p0
(dp1
S'previous_action'
p2
S'East'
p3
sS'current_recommended_action'
p4
g3
sS'current_state_type'
p5
S'terminal'
p6
sS'current_state'
p7
S'%%%%%\n% PG%\n%%%%%'
p8
sS'previous_state'
p9
g8
sS'EXPLORATION_STRATEGY'
p10
S'BOLTZMANN'
p11
sS'train'
p12
I01
sS'current_legal_actions'
p13
(lp14
sS'ON_POLICY'
p15
I00
sS'q_values'
p16
(dp17
S'%%%%%\n% PG%\n%%%%%'
p18
(dp19
sS'%%%%%\n%P.G%\n%%%%%'
p20
(dp21
g3
F204.24289792766515
sssS'INITIALIZE_VALUE'
p22
I0
sS'ALPHA'
p23
F0.05
sS'GAMMA'
p24
F0.9
sS'T'
p25
F1.5
sb.