(iQLearningAgent
QLearningAgent
p0
(dp1
S'previous_action'
p2
S'East'
p3
sS'current_recommended_action'
p4
g3
sS'current_state_type'
p5
S'terminal'
p6
sS'current_state'
p7
S'%%%%%\n% . %\n% G.%\n%%%%%'
p8
sS'previous_state'
p9
g8
sS'EXPLORATION_STRATEGY'
p10
S'BOLTZMANN'
p11
sS'train'
p12
I01
sS'current_legal_actions'
p13
(lp14
sS'ON_POLICY'
p15
I00
sS'q_values'
p16
(dp17
S'%%%%%\n%P.G%\n%...%\n%%%%%'
p18
(dp19
g3
F-24.122500000000002
sS'South'
p20
F3.0596895404296878
ssS'%%%%%\n%  G%\n% P.%\n%%%%%'
p21
(dp22
S'West'
p23
F-0.05
sg3
I0
sS'North'
p24
I0
ssS'%%%%%\n% G %\n%...%\n%%%%%'
p25
(dp26
sS'%%%%%\n% P %\n%G..%\n%%%%%'
p27
(dp28
g23
F-25.05
sg3
I0
sg20
F0.8775000000000001
ssS'%%%%%\n% P %\n%  G%\n%%%%%'
p29
(dp30
g23
I0
sg3
F-25.05
sg20
I0
ssS'%%%%%\n%G  %\n% P.%\n%%%%%'
p31
(dp32
g23
I0
sg3
F25.450000000000003
sg24
F-25.05
ssS'%%%%%\n% G %\n%P .%\n%%%%%'
p33
(dp34
g3
I0
sg24
F-0.05
ssS'%%%%%\n% G %\n%P..%\n%%%%%'
p35
(dp36
g3
F-24.122500000000002
sg24
F-0.02975
ssS'%%%%%\n% P %\n%..G%\n%%%%%'
p37
(dp38
g23
F-0.05
sg3
I0
sg20
I0
ssS'%%%%%\n%G  %\n%  P%\n%%%%%'
p39
(dp40
sS'%%%%%\n% P %\n%G .%\n%%%%%'
p41
(dp42
g23
I0
sg3
I0
sg20
F-25.05
ssS'%%%%%\n%G  %\n% ..%\n%%%%%'
p43
(dp44
sS'%%%%%\n%P  %\n%.G.%\n%%%%%'
p45
(dp46
g3
I0
sg20
F-24.55
ssS'%%%%%\n%G. %\n% P.%\n%%%%%'
p47
(dp48
g23
I0
sg3
I0
sg24
F0.45
ssS'%%%%%\n%P  %\n% G.%\n%%%%%'
p49
(dp50
g3
F-0.05
sg20
I0
ssS'%%%%%\n% P %\n% .G%\n%%%%%'
p51
(dp52
g23
I0
sg3
I0
sg20
F0.45
ssS'%%%%%\n% G %\n%  .%\n%%%%%'
p53
(dp54
sS'%%%%%\n% . %\n% G.%\n%%%%%'
p55
(dp56
sS'%%%%%\n%P. %\n% G.%\n%%%%%'
p57
(dp58
g3
F1.70893125
sg20
F-25.05
ssS'%%%%%\n%   %\n%G..%\n%%%%%'
p59
(dp60
sS'%%%%%\n% . %\n%G..%\n%%%%%'
p61
(dp62
sS'%%%%%\n%   %\n% G.%\n%%%%%'
p63
(dp64
sS'%%%%%\n%  G%\n%  .%\n%%%%%'
p65
(dp66
sS'%%%%%\n% . %\n%P.G%\n%%%%%'
p67
(dp68
g3
F-24.55
sg24
F-0.01721371874999998
sssS'INITIALIZE_VALUE'
p69
I0
sS'ALPHA'
p70
F0.05
sS'GAMMA'
p71
F0.9
sS'T'
p72
F1.5
sb.