(iQLearningAgent
QLearningAgent
p0
(dp1
S'previous_action'
p2
S'North'
p3
sS'current_recommended_action'
p4
g3
sS'current_state_type'
p5
S'terminal'
p6
sS'current_state'
p7
S'%%%%%%%\n%     %\n%  G  %\n%     %\n%     %\n%.    %\n%%%%%%%'
p8
sS'previous_state'
p9
g8
sS'EXPLORATION_STRATEGY'
p10
S'BOLTZMANN'
p11
sS'train'
p12
I01
sS'current_legal_actions'
p13
(lp14
sS'ON_POLICY'
p15
I00
sS'q_values'
p16
(dp17
S'%%%%%%%\n%     %\n%   P %\n%     %\n%G    %\n%.    %\n%%%%%%%'
p18
(dp19
S'West'
p20
I0
sS'East'
p21
I0
sg3
F-0.05
sS'South'
p22
F-0.05
ssS'%%%%%%%\n%     %\n%G    %\n%    P%\n%     %\n%.    %\n%%%%%%%'
p23
(dp24
g20
I0
sg3
F-0.0975
sg22
I0
ssS'%%%%%%%\n%   P %\n%    .%\n%  G  %\n%     %\n%.    %\n%%%%%%%'
p25
(dp26
g20
I0
sg21
F-0.05
sg22
I0
ssS'%%%%%%%\n%   G %\n%    .%\n%     %\n%     %\n%.    %\n%%%%%%%'
p27
(dp28
sS'%%%%%%%\n% G  P%\n%     %\n%     %\n%     %\n%.    %\n%%%%%%%'
p29
(dp30
g20
F-0.05
sg22
I0
ssS'%%%%%%%\n%     %\n%     %\n%  P  %\n%  G  %\n%.    %\n%%%%%%%'
p31
(dp32
g20
F-0.05
sg21
I0
sg3
I0
sg22
I0
ssS'%%%%%%%\n%  P  %\n%     %\n%     %\n%     %\n%.  G %\n%%%%%%%'
p33
(dp34
g20
F-0.05
sg21
I0
sg22
I0
ssS'%%%%%%%\n%     %\n%  G  %\n%  P  %\n%     %\n%.    %\n%%%%%%%'
p35
(dp36
g20
I0
sg21
I0
sg3
F-25.05
sg22
I0
ssS'%%%%%%%\n%     %\n%     %\n% PG  %\n%     %\n%.    %\n%%%%%%%'
p37
(dp38
g20
I0
sg21
F-25.05
sg3
I0
sg22
I0
ssS'%%%%%%%\n%     %\n%    P%\n%G    %\n%     %\n%.    %\n%%%%%%%'
p39
(dp40
g20
I0
sg3
I0
sg22
F-0.05
ssS'%%%%%%%\n% P   %\n%   G %\n%     %\n%     %\n%.    %\n%%%%%%%'
p41
(dp42
g20
I0
sg21
I0
sg22
F-0.05
ssS'%%%%%%%\n% G   %\n%     %\n%    P%\n%     %\n%.    %\n%%%%%%%'
p43
(dp44
g20
I0
sg3
F-0.0975
sg22
I0
ssg8
(dp45
sS'%%%%%%%\n%     %\n%     %\n% G  P%\n%     %\n%.    %\n%%%%%%%'
p46
(dp47
g20
I0
sg3
F-0.05
sg22
I0
ssS'%%%%%%%\n%    P%\n%     %\n%     %\n%     %\n%.G   %\n%%%%%%%'
p48
(dp49
g20
F-0.05
sg22
I0
ssS'%%%%%%%\n%   P %\n% G   %\n%     %\n%     %\n%.    %\n%%%%%%%'
p50
(dp51
g20
I0
sg21
F-0.05
sg22
I0
ssS'%%%%%%%\n%     %\n%    P%\n%     %\n%     %\n%. G  %\n%%%%%%%'
p52
(dp53
g20
I0
sg3
I0
sg22
F-0.05
ssS'%%%%%%%\n%     %\n%   G %\n%     %\n%     %\n%.    %\n%%%%%%%'
p54
(dp55
sS'%%%%%%%\n%     %\n%    P%\n%    G%\n%     %\n%.    %\n%%%%%%%'
p56
(dp57
g20
I0
sg3
I0
sg22
F-25.05
ssS'%%%%%%%\n%   P %\n%    .%\n%G    %\n%     %\n%.    %\n%%%%%%%'
p58
(dp59
g20
I0
sg21
F-0.05
sg22
F-0.05
ssS'%%%%%%%\n%     %\n%   GP%\n%     %\n%     %\n%.    %\n%%%%%%%'
p60
(dp61
g20
F-25.05
sg3
I0
sg22
I0
ssS'%%%%%%%\n%     %\n%     %\n%     %\n%   GP%\n%.    %\n%%%%%%%'
p62
(dp63
g20
I0
sg3
F-0.05
sg22
I0
ssS'%%%%%%%\n%    P%\n%     %\n%     %\n%  G  %\n%.    %\n%%%%%%%'
p64
(dp65
g20
F-0.05
sg22
I0
ssS'%%%%%%%\n%P    %\n%     %\n%     %\n%    G%\n%.    %\n%%%%%%%'
p66
(dp67
g21
F-0.05
sg22
I0
ssS'%%%%%%%\n%    P%\n%  G  %\n%     %\n%     %\n%.    %\n%%%%%%%'
p68
(dp69
g20
I0
sg22
F-0.05
ssS'%%%%%%%\n%     %\n%   P.%\n%     %\n%G    %\n%.    %\n%%%%%%%'
p70
(dp71
g20
F-0.05
sg21
I0
sg3
I0
sg22
I0
ssS'%%%%%%%\n%    P%\n%     %\n% G   %\n%     %\n%.    %\n%%%%%%%'
p72
(dp73
g20
I0
sg22
F-0.05
ssS'%%%%%%%\n%     %\n%     %\n%G  P %\n%     %\n%.    %\n%%%%%%%'
p74
(dp75
g20
I0
sg21
I0
sg3
F-0.05
sg22
I0
ssS'%%%%%%%\n% G  P%\n%    .%\n%     %\n%     %\n%.    %\n%%%%%%%'
p76
(dp77
g20
F-0.05
sg22
I0
ssS'%%%%%%%\n%   G %\n% P   %\n%     %\n%     %\n%.    %\n%%%%%%%'
p78
(dp79
g20
I0
sg21
I0
sg3
F-0.05
sg22
I0
ssS'%%%%%%%\n%     %\n%     %\n%     %\n%  P  %\n%. G  %\n%%%%%%%'
p80
(dp81
g20
I0
sg21
I0
sg3
F-0.05
sg22
I0
ssS'%%%%%%%\n%     %\n%G  P %\n%     %\n%     %\n%.    %\n%%%%%%%'
p82
(dp83
g20
I0
sg21
I0
sg3
I0
sg22
F-0.05
ssS'%%%%%%%\n%     %\n%  PG %\n%     %\n%     %\n%.    %\n%%%%%%%'
p84
(dp85
g20
I0
sg21
I0
sg3
I0
sg22
F-0.05
ssS'%%%%%%%\n%     %\n%     %\n%    P%\n%  G  %\n%.    %\n%%%%%%%'
p86
(dp87
g20
I0
sg3
I0
sg22
F-0.05
ssS'%%%%%%%\n%     %\n%     %\n%  P  %\n%     %\n%.  G %\n%%%%%%%'
p88
(dp89
g20
I0
sg21
I0
sg3
I0
sg22
F-0.05
ssS'%%%%%%%\n%    P%\n%    .%\n%   G %\n%     %\n%.    %\n%%%%%%%'
p90
(dp91
g20
I0
sg22
F0.45
ssS'%%%%%%%\n%  P  %\n%    G%\n%     %\n%     %\n%.    %\n%%%%%%%'
p92
(dp93
g20
F-0.0975
sg21
I0
sg22
I0
ssS'%%%%%%%\n%G    %\n%     %\n%   P %\n%     %\n%.    %\n%%%%%%%'
p94
(dp95
g20
I0
sg21
F-0.05
sg3
I0
sg22
I0
ssS'%%%%%%%\n%     %\n%     %\n%  P  %\n%     %\n%.G   %\n%%%%%%%'
p96
(dp97
g20
I0
sg21
I0
sg3
F-0.05
sg22
I0
ssS'%%%%%%%\n%   G %\n%   P.%\n%     %\n%     %\n%.    %\n%%%%%%%'
p98
(dp99
g20
I0
sg21
I0
sg3
F-25.05
sg22
I0
ssS'%%%%%%%\n%     %\n%  P .%\n%     %\n%     %\n%G    %\n%%%%%%%'
p100
(dp101
g20
I0
sg21
F-0.05
sg3
I0
sg22
I0
ssS'%%%%%%%\n%     %\n%  P  %\n%     %\n% G   %\n%.    %\n%%%%%%%'
p102
(dp103
g20
I0
sg21
I0
sg3
I0
sg22
F-0.05
ssS'%%%%%%%\n%     %\n% G  P%\n%     %\n%     %\n%.    %\n%%%%%%%'
p104
(dp105
g20
I0
sg3
F-0.05
sg22
F-0.0975
ssS'%%%%%%%\n%  P  %\n%     %\n%   G %\n%     %\n%.    %\n%%%%%%%'
p106
(dp107
g20
I0
sg21
I0
sg22
F-0.05
ssS'%%%%%%%\n%     %\n%     %\n%  G  %\n%     %\n%.    %\n%%%%%%%'
p108
(dp109
sS'%%%%%%%\n%    P%\n%    .%\n% G   %\n%     %\n%.    %\n%%%%%%%'
p110
(dp111
g20
F-0.05
sg22
F0.45
ssS'%%%%%%%\n%  GP %\n%    .%\n%     %\n%     %\n%.    %\n%%%%%%%'
p112
(dp113
g20
I0
sg21
I0
sg22
F-0.05
ssS'%%%%%%%\n% P  G%\n%     %\n%     %\n%     %\n%.    %\n%%%%%%%'
p114
(dp115
g20
I0
sg21
F-0.05
sg22
I0
ssS'%%%%%%%\n%     %\n%     %\n%   P %\n%     %\n%.   G%\n%%%%%%%'
p116
(dp117
g20
F-0.05
sg21
I0
sg3
I0
sg22
I0
ssS'%%%%%%%\n% P   %\n%     %\n%    G%\n%     %\n%.    %\n%%%%%%%'
p118
(dp119
g20
I0
sg21
F-0.0975
sg22
I0
ssS'%%%%%%%\n%   P %\n%     %\n%     %\n%     %\n%G    %\n%%%%%%%'
p120
(dp121
g20
I0
sg21
F-0.05
sg22
I0
ssS'%%%%%%%\n%    P%\n%G   .%\n%     %\n%     %\n%.    %\n%%%%%%%'
p122
(dp123
g20
F-0.18549375
sg22
F0.45
ssS'%%%%%%%\n%     %\n%    P%\n%  G  %\n%     %\n%.    %\n%%%%%%%'
p124
(dp125
g20
I0
sg3
F-0.05
sg22
I0
ssS'%%%%%%%\n%     %\n%     %\n%    P%\n%    G%\n%.    %\n%%%%%%%'
p126
(dp127
g20
F-0.05
sg3
I0
sg22
I0
ssS'%%%%%%%\n% P   %\n%     %\n%     %\n%     %\n%.   G%\n%%%%%%%'
p128
(dp129
g20
F-0.05
sg21
I0
sg22
I0
ssS'%%%%%%%\n%     %\n%    P%\n%     %\n% G   %\n%.    %\n%%%%%%%'
p130
(dp131
g20
F-0.05
sg3
I0
sg22
I0
ssS'%%%%%%%\n%   P %\n% G  .%\n%     %\n%     %\n%.    %\n%%%%%%%'
p132
(dp133
g20
I0
sg21
F-0.05
sg22
I0
ssS'%%%%%%%\n%   P %\n%     %\n%     %\n%     %\n%. G  %\n%%%%%%%'
p134
(dp135
g20
F-0.05
sg21
I0
sg22
I0
ssS'%%%%%%%\n%G    %\n%    P%\n%     %\n%     %\n%.    %\n%%%%%%%'
p136
(dp137
g20
I0
sg3
F-0.05
sg22
F-0.05
ssS'%%%%%%%\n%   P %\n%     %\n%     %\n% G   %\n%.    %\n%%%%%%%'
p138
(dp139
g20
I0
sg21
I0
sg22
F-0.05
ssS'%%%%%%%\n%G  P %\n%    .%\n%     %\n%     %\n%.    %\n%%%%%%%'
p140
(dp141
g20
I0
sg21
F-0.05
sg22
I0
ssS'%%%%%%%\n%     %\n%   P.%\n%     %\n%     %\n%.G   %\n%%%%%%%'
p142
(dp143
g20
I0
sg21
F0.45
sg3
I0
sg22
I0
ssS'%%%%%%%\n%     %\n%     %\n%    G%\n%     %\n%.    %\n%%%%%%%'
p144
(dp145
ssS'INITIALIZE_VALUE'
p146
I0
sS'ALPHA'
p147
F0.05
sS'GAMMA'
p148
F0.9
sS'T'
p149
F1.5
sb.