(iQLearningAgent
QLearningAgent
p0
(dp1
S'previous_action'
p2
S'South'
p3
sS'current_recommended_action'
p4
g3
sS'current_state_type'
p5
S'terminal'
p6
sS'current_state'
p7
<<<<<<< HEAD
S'%%%%%\n%   %\n% P %\n%%%%%'
=======
S'%%%%\n% P%\n% G%\n%%%%'
>>>>>>> 1c6b11692587588bc224e7be222d88981781c20d
p8
sS'previous_state'
p9
g8
sS'EXPLORATION_STRATEGY'
p10
S'BOLTZMANN'
p11
sS'train'
p12
I01
sS'current_legal_actions'
p13
(lp14
sS'ON_POLICY'
p15
I00
sS'q_values'
p16
(dp17
<<<<<<< HEAD
S'%%%%%\n%   %\n%P  %\n%%%%%'
p18
(dp19
sS'%%%%%\n% P %\n% . %\n%%%%%'
p20
(dp21
S'West'
p22
I0
sS'East'
p23
F-0.09975
sg3
F171.3190004738672
ssS'%%%%%\n%  P%\n%.. %\n%%%%%'
p24
(dp25
g22
I0
sg3
F-0.05
ssS'%%%%%\n% . %\n%P. %\n%%%%%'
p26
(dp27
g23
I0
sS'North'
p28
F2.5135264687347663
ssS'%%%%%\n%   %\n%..P%\n%%%%%'
p29
(dp30
g22
F1.5952500000000003
sg28
I0
ssS'%%%%%\n%   %\n% P %\n%%%%%'
p31
(dp32
sS'%%%%%\n%   %\n%.P %\n%%%%%'
p33
(dp34
g22
F49.627500000000005
sg23
I0
sg28
I0
ssS'%%%%%\n%P. %\n%.. %\n%%%%%'
p35
(dp36
g23
F0.89775
sg3
F3.1633645101067964
ssS'%%%%%\n% P %\n%.. %\n%%%%%'
p37
(dp38
g22
I0
sg23
F-0.05
sg3
F0.45
ssS'%%%%%\n%   %\n% .P%\n%%%%%'
p39
(dp40
g22
I0
sg28
F-0.05
ssS'%%%%%\n%P. %\n% . %\n%%%%%'
p41
(dp42
g23
F29.252990408660157
sg3
I0
ssS'%%%%%\n%  P%\n% . %\n%%%%%'
p43
(dp44
g22
F-0.0975
sg3
F-0.05
sssS'INITIALIZE_VALUE'
p45
I0
sS'ALPHA'
p46
F0.05
sS'GAMMA'
p47
F0.9
sS'T'
p48
=======
S'%%%%\n%P.%\n% G%\n%%%%'
p18
(dp19
g3
F204.24289792766515
sS'South'
p20
I0
ssS'%%%%\n% P%\n% G%\n%%%%'
p21
(dp22
ssS'INITIALIZE_VALUE'
p23
I0
sS'ALPHA'
p24
F0.05
sS'GAMMA'
p25
F0.9
sS'T'
p26
>>>>>>> 1c6b11692587588bc224e7be222d88981781c20d
F1.5
sb.