(iQLearningAgent
QLearningAgent
p0
(dp1
S'previous_action'
p2
S'East'
p3
sS'current_recommended_action'
p4
g3
sS'current_state_type'
p5
S'terminal'
p6
sS'current_state'
p7
S'%%%%%%%%%\n%   P  G%\n%%%%%%%%%'
p8
sS'previous_state'
p9
g8
sS'EXPLORATION_STRATEGY'
p10
S'BOLTZMANN'
p11
sS'train'
p12
I01
sS'current_legal_actions'
p13
(lp14
sS'ON_POLICY'
p15
I00
sS'q_values'
p16
(dp17
S'%%%%%%%%%\n% P . G %\n%%%%%%%%%'
p18
(dp19
S'West'
p20
I0
sg3
F-0.05
ssg8
(dp21
sS'%%%%%%%%%\n%P  .  G%\n%%%%%%%%%'
p22
(dp23
g3
F-0.05
ssS'%%%%%%%%%\n%  P.  G%\n%%%%%%%%%'
p24
(dp25
g20
I0
sg3
F25.450000000000003
sssS'INITIALIZE_VALUE'
p26
I0
sS'ALPHA'
p27
F0.05
sS'GAMMA'
p28
F0.9
sS'T'
p29
F1.5
sb.