(iQLearningAgent
QLearningAgent
p0
(dp1
S'previous_action'
p2
I4
sS'current_recommended_action'
p3
I4
sS'current_state_type'
p4
S'terminal'
p5
sS'current_state'
p6
S'%%%%%%%%%\n% G  .  %\n%%%%%%%%%'
p7
sS'previous_state'
p8
g7
sS'EXPLORATION_STRATEGY'
p9
S'BOLTZMANN'
p10
sS'train'
p11
I01
sS'current_legal_actions'
p12
(lp13
sS'ON_POLICY'
p14
I00
sS'q_values'
p15
(dp16
S'%%%%%%%%%\n% PG .  %\n%%%%%%%%%'
p17
(dp18
I2
I0
sI3
F-0.153302628125
sI4
F-25.148823750000002
ssS'%%%%%%%%%\n%P  G.  %\n%%%%%%%%%'
p19
(dp20
I2
F-0.142625
sI4
F-0.32035540859375
ssS'%%%%%%%%%\n% P  G  %\n%%%%%%%%%'
p21
(dp22
I2
F-0.0975
sI3
F-0.1470125
sI4
F-0.15738586335312502
ssS'%%%%%%%%%\n%P   . G%\n%%%%%%%%%'
p23
(dp24
I2
F-0.4043553785433594
sI4
F-0.4498216403956934
ssS'%%%%%%%%%\n%    PG %\n%%%%%%%%%'
p25
(dp26
sS'%%%%%%%%%\n%  PG.  %\n%%%%%%%%%'
p27
(dp28
I2
I0
sI3
F-0.05
sI4
I0
ssS'%%%%%%%%%\n% G  .  %\n%%%%%%%%%'
p29
(dp30
sS'%%%%%%%%%\n%P G .  %\n%%%%%%%%%'
p31
(dp32
I2
F-0.144875
sI4
F-2.4285193437500006
ssS'%%%%%%%%%\n%  G .  %\n%%%%%%%%%'
p33
(dp34
sS'%%%%%%%%%\n%P   G  %\n%%%%%%%%%'
p35
(dp36
I2
F-0.3277010779109375
sI4
F-0.194049375
ssS'%%%%%%%%%\n%  P G  %\n%%%%%%%%%'
p37
(dp38
I2
F3.169325625
sI3
F-0.05225
sI4
F-0.05
ssS'%%%%%%%%%\n%P   .G %\n%%%%%%%%%'
p39
(dp40
I2
F-0.30605020390625004
sI4
F-0.3314565809726563
ssS'%%%%%%%%%\n% P G.  %\n%%%%%%%%%'
p41
(dp42
I2
F-25.05
sI3
F-0.19627743749999998
sI4
F-0.142625
ssS'%%%%%%%%%\n% P  . G%\n%%%%%%%%%'
p43
(dp44
I2
F-0.0975
sI3
F-0.21315727499999998
sI4
F-0.1018875
ssS'%%%%%%%%%\n% P  .G %\n%%%%%%%%%'
p45
(dp46
I2
F-0.11647578031249994
sI3
F-0.40118823670210246
sI4
F-0.268974703125
ssS'%%%%%%%%%\n%PG  .  %\n%%%%%%%%%'
p47
(dp48
I2
F-48.8475
sI4
F-23.899043125
ssS'%%%%%%%%%\n%  P .G %\n%%%%%%%%%'
p49
(dp50
I2
I0
sI3
F-0.10188749999999999
sI4
F-0.0975
ssS'%%%%%%%%%\n%   P.G %\n%%%%%%%%%'
p51
(dp52
I2
F115.1455028125
sI3
I0
sI4
I0
ssS'%%%%%%%%%\n%  P . G%\n%%%%%%%%%'
p53
(dp54
I2
F7.261273093750001
sI3
F-0.10188749999999999
sI4
I0
ssS'%%%%%%%%%\n%G   .  %\n%%%%%%%%%'
p55
(dp56
ssS'INITIALIZE_VALUE'
p57
I0
sS'ALPHA'
p58
F0.05
sS'GAMMA'
p59
F0.9
sS'T'
p60
F1.5
sb.