(iQLearningAgent
QLearningAgent
p0
(dp1
S'previous_action'
p2
S'East'
p3
sS'current_recommended_action'
p4
g3
sS'current_state_type'
p5
S'terminal'
p6
sS'current_state'
p7
S'%%%%%%%\n%    P%\n%%%%%%%'
p8
sS'previous_state'
p9
g8
sS'EXPLORATION_STRATEGY'
p10
S'BOLTZMANN'
p11
sS'train'
p12
I01
sS'current_legal_actions'
p13
(lp14
sS'ON_POLICY'
p15
I00
sS'q_values'
p16
(dp17
S'%%%%%%%\n%P....%\n%%%%%%%'
p18
(dp19
g3
F4.77458463626576
ssS'%%%%%%%\n%   P.%\n%%%%%%%'
p20
(dp21
S'West'
p22
I0
sg3
F204.24289792766515
ssS'%%%%%%%\n%P ...%\n%%%%%%%'
p23
(dp24
g3
F-0.009601249999999995
ssS'%%%%%%%\n%  P..%\n%%%%%%%'
p25
(dp26
g22
F-0.146507375
sg3
F43.071348384331436
ssS'%%%%%%%\n%P  ..%\n%%%%%%%'
p27
(dp28
g3
F-0.18549375
ssS'%%%%%%%\n% P...%\n%%%%%%%'
p29
(dp30
g22
F-0.05
sg3
F9.051889901549362
ssS'%%%%%%%\n% P ..%\n%%%%%%%'
p31
(dp32
g22
F-0.198110625
sg3
F-0.014088124999999986
ssS'%%%%%%%\n%    P%\n%%%%%%%'
p33
(dp34
ssS'INITIALIZE_VALUE'
p35
I0
sS'ALPHA'
p36
F0.05
sS'GAMMA'
p37
F0.9
sS'T'
p38
F1.5
sb.