(iQLearningAgent
QLearningAgent
p0
(dp1
S'previous_action'
p2
S'West'
p3
sS'current_recommended_action'
p4
g3
sS'current_state_type'
p5
S'terminal'
p6
sS'current_state'
p7
S'%%%%%\n% G %\n%   %\n%%%%%'
p8
sS'previous_state'
p9
g8
sS'EXPLORATION_STRATEGY'
p10
S'BOLTZMANN'
p11
sS'train'
p12
I01
sS'current_legal_actions'
p13
(lp14
sS'ON_POLICY'
p15
I00
sS'q_values'
p16
(dp17
S'%%%%%\n% PG%\n%   %\n%%%%%'
p18
(dp19
g3
F-0.14711375
sS'East'
p20
I0
sS'South'
p21
F-0.05225
ssS'%%%%%\n%  P%\n%G  %\n%%%%%'
p22
(dp23
g3
F-0.149043125
sg21
F-0.0975
ssS'%%%%%\n%P  %\n%G  %\n%%%%%'
p24
(dp25
g20
F-0.30818770390625
sg21
F-25.05
ssS'%%%%%\n%  G%\n%P  %\n%%%%%'
p26
(dp27
g20
F-0.0975
sS'North'
p28
F-0.26269830452152254
ssS'%%%%%\n%G  %\n%  P%\n%%%%%'
p29
(dp30
g3
F-0.101668125
sg28
F-0.09975
ssS'%%%%%\n%PG %\n%   %\n%%%%%'
p31
(dp32
g20
F-25.05
sg21
F-0.3279383361775076
ssS'%%%%%\n%  P%\n%  G%\n%%%%%'
p33
(dp34
g3
F-0.05
sg21
I0
ssS'%%%%%\n% P %\n% G %\n%%%%%'
p35
(dp36
g3
F-0.2460126972246172
sg20
F-0.18549375
sg21
F-25.05
ssS'%%%%%\n%G  %\n%   %\n%%%%%'
p37
(dp38
sS'%%%%%\n%   %\n% PG%\n%%%%%'
p39
(dp40
g3
F-0.06515610642235235
sg20
F-25.05
sg28
F-0.05225
ssS'%%%%%\n%   %\n% G %\n%%%%%'
p41
(dp42
sS'%%%%%\n%   %\n%G  %\n%%%%%'
p43
(dp44
sS'%%%%%\n%   %\n%GP %\n%%%%%'
p45
(dp46
g3
I0
sg20
F-0.05448875
sg28
F-0.11001534375
ssS'%%%%%\n% G %\n%   %\n%%%%%'
p47
(dp48
sS'%%%%%\n% GP%\n%   %\n%%%%%'
p49
(dp50
g3
F-25.05
sg21
F-0.1900786875
ssS'%%%%%\n%GP %\n%   %\n%%%%%'
p51
(dp52
g3
F-25.05
sg20
F-0.0975
sg21
F-0.27132623437500003
ssS'%%%%%\n%   %\n%  G%\n%%%%%'
p53
(dp54
sS'%%%%%\n%   %\n% GP%\n%%%%%'
p55
(dp56
g3
F-25.05
sg28
F-0.14476250000000002
ssS'%%%%%\n%   %\n%PG %\n%%%%%'
p57
(dp58
g20
F-25.05
sg28
F-0.42586370280622704
ssS'%%%%%\n%P  %\n%  G%\n%%%%%'
p59
(dp60
g20
F-0.3797110730878906
sg21
F-0.3283793068331935
ssS'%%%%%\n%  G%\n%  P%\n%%%%%'
p61
(dp62
g3
F-0.0975
sg28
I0
ssS'%%%%%\n% G %\n% P %\n%%%%%'
p63
(dp64
g3
F-0.2498814836164691
sg20
F-0.142625
sg28
F-25.05
ssS'%%%%%\n%G  %\n%P  %\n%%%%%'
p65
(dp66
g20
F-0.0975
sg28
F-25.05
sssS'INITIALIZE_VALUE'
p67
I0
sS'ALPHA'
p68
F0.05
sS'GAMMA'
p69
F0.9
sS'T'
p70
F1.5
sb.